# Le loader fait:
# * chargement de HEADOVER.I et décompression en memoire ecran pour y afficher l'image d'intro
# * chargement de HEADOVER.II en 0x0100-0xA3BF
# * chargement de HEADOVER.III en memoire ecran (pas une image) puis copie en 0xA3C0-ADAF (should go to ADBF)
# copie d'une petite routine en 0065, puis saut en 0065
# en 0065 cette petite routine saute en 0100
# HEADOVER.BIN  Start addr: 0xBE80, length 0x008D, Enter Point 0xBEA7

Load HEADOVER.I at 4000


	    0  1  2  3  4  5  6  7  8  9  A  B  C  D  E  F
BE80 : 48 45 41 44 4F 56 45 52 2E 49 49 49 00 00 00 00
BE90 : C9 00 00 03 00 00 00 11 00 C0 21 80 BE CD 77 BC
BEA0 : EB CD 83 BC C3 7A BC C5 E1 0E 07 CD CE BC ED 5B
BEB0 : 8C BE 2A 8E BE CD 90 BE 06 0A CD 97 BE CD 12 40
BEC0 : 06 0B CD 97 BE 3A 93 BE B7 F3 28 1F 06 0C 21 80
BED0 : BE 11 00 C0 CD 77 BC C5 21 00 C0 CD 83 BC CD 7A
BEE0 : BC 21 00 C0 11 C0 A3 C1 F3 ED B0 31 FA BF 01 10
BEF0 : F6 ED 49 3E 80 ED 4F AF 21 0C BF 11 6B 00 01 07
BF00 : 00 ED B8 EB 23 E9 06 F6 ED 79 C3 00 01

Start:
Data1:
	BE80 : "HEADOVER.III"					noms de fichiers (HEADOVER.I, .II et .III!)
	BE8C 00 00             					val DE
	BE8E 00 00      						val HL

Vide:
	BE90 C9             RET

Data2:
	BE91 00
	BE92 00
	BE93 03 								val A
	BE94 00
	BE95 00
	BE96 00

Lecture Fichier:
	BE97 11 00 C0       LD DE,C000			addr du tampon (2048 bytes)
	BE9A 21 80 BE       LD HL,BE80			addr du nom de fichier
	BE9D CD 77 BC       CALL BC77			POSITIONNE LE TAMPON POUR LA LECTURE ET LIT LE PREMIER BLOC
											En sortie HL = addr du tampon qui contient l'entete du fichier
													  DE = addr destination des données
													  BC = longueur fichier
													  A = type de fichier (b0 = protégé si 1, b2:1 "00" Basic, "01" : Binaire, "10" : Image, "11" : ASCII
	BEA0 EB             EX DE,HL			echange DE (entete) et HL (données)
											Entrée : HL = addr d'écriture en RAM
	BEA1 CD 83 BC       CALL BC83			LECTURE D’UN FICHIER ET ÉCRITURE EN MÉMOIRE
											Sortie: HL = point d'entrée
	BEA4 C3 7A BC       JP BC7A				FERME LE FICHIER, si OK C=1 sinon C=0 (inclus un RET)

Entry:
======
	BEA7 C5             PUSH BC				Stack BC
	BEA8 E1             POP HL				Unstack HL (=BC)
	BEA9 0E 07          LD C,07				C = addr de selection de la ROM, 7 = "ROM SECONDAIRE" (AMSDOS, fonctions du lecteur de disquettes)
											Entrée : DE = addr of 1st usable byte in mem, HL = last usable byte in mem
	BEAB CD CE BC       CALL BCCE			INITIALISE UNE ROM DE SECOND PLAN;

	BEAE ED 5B 8C BE    LD DE,(BE8C)		DE = 0
	BEB2 2A 8E BE       LD HL,(BE8E)		HL = 0
	BEB5 CD 90 BE       CALL BE90			Appel Vide

	BEB8 06 0A          LD B,0A				B = 10, longueur du nom de fichier ("HEADOVER.I")
	BEBA CD 97 BE       CALL BE97			Appel "Lecture Fichier"
Load Loading/Intro image on the screen:
	BEBD CD 12 40       CALL 4012			Call 4012 (HEADOVER.I vient d'être chargé en 4000)
Load .II file
	BEC0 06 0B          LD B,0B				B = 11, longueur du nom de fichier ("HEADOVER.II") Start addr 0x0100, length 0xA2C0
	BEC2 CD 97 BE       CALL BE97			Appel "Lecture Fichier"
	BEC5 3A 93 BE       LD A,(BE93)			A = 3
	BEC8 B7             OR A				A==0 ? Z est set si oui ou reset si A not 0, so here Z=0
	BEC9 F3             DI					Disable Interrupts
	BECA 28 1F          JR Z,BEEB			Jump if Z is set, do not jump here
# Si (BE93) != 0, fait ceci au lieu de sauter en BEEB
# Load .III file at C000 and copy it from A3C0
	BECC 06 0C          LD B,0C				B = 12, longueur du nom de fichier ("HEADOVER.III") length 0x09F0
	BECE 21 80 BE       LD HL,BE80			addr du nom de fichier
	BED1 11 00 C0       LD DE,C000			addr du tampon (2048 bytes)
	BED4 CD 77 BC       CALL BC77			POSITIONNE LE TAMPON POUR LA LECTURE ET LIT LE PREMIER BLOC
											En sortie HL = addr du tampon qui contient l'entete du fichier : AC55
													  DE = addr des données: 4000
													  BC = longueur fichier : 09F0
													  A = 02 = Bin : type de fichier (b0 = protégé si 1, b2:1 "00" Basic, "01" : Binaire, "10" : Image, "11" : ASCII
	BED7 C5             PUSH BC				Sauve BC = longueur fichier
	BED8 21 00 C0       LD HL,C000			HL = C000
	BEDB CD 83 BC       CALL BC83			LECTURE D’UN FICHIER ET ÉCRITURE EN MÉMOIRE
											Sortie: HL = point d'entrée
	BEDE CD 7A BC       CALL BC7A			FERME LE FICHIER, si OK C=1 sinon C=0
Copy it to A3C0-ADAF:
	BEE1 21 00 C0       LD HL,C000			HL = C000
	BEE4 11 C0 A3       LD DE,A3C0			DE = A3C0
	BEE7 C1             POP BC				Restore BC = longueur fichier
	BEE8 F3             DI					Disable Interrupts
	BEE9 ED B0          LDIR				Copy block : repeats LD (DE), (HL) ; DE++ ; HL++; BC-- until BC=0
# Saute ici directement après HEADOVER.II loading si (BE93) == 0
	BEEB 31 FA BF       LD SP,BFFA			Stack Pointer = BFFA
	BEEE 01 10 F6       LD BC,F610			BC = F610
	BEF1 ED 49          OUT (C),C			Cassette motor On
	BEF3 3E 80          LD A,80				A = 80
	BEF5 ED 4F          LD R,A				R = 80
	BEF7 AF             XOR A				A = 0 (R=81)
	BEF8 21 0C BF       LD HL,BF0C			Block de 7 bytes (R=82)
	BEFB 11 6B 00       LD DE,006B			de       BF06 à BF0C
	BEFE 01 07 00       LD BC,0007			copié en 0065 à 006B
	BF01 ED B8          LDDR				Reverse Copy block : repeats LD (DE), (HL) ; DE-- ; HL--; BC-- until BC=0
	BF03 EB             EX DE,HL			Echange DE et HL
	BF04 23             INC HL				HL = debut de la routine copiée 0065
	BF05 E9             JP (HL)				Malgré la mnémonique qui devrait être JP HL, c'est bien en HL que l'on saute et non en "contenu de HL"

Routine copiée en 0065 à laquelle on saute
	BF06 06 F6          LD B,F6
	BF08 ED 79          OUT (C),A
	BF0A C3 00 01       JP 0100

 D'où

	0065 06 F6          LD B,F6				K7 motor off (?) et préparation BDIR et BC1 du port C pour l'AY (?)
	0067 ED 79          OUT (C),A
	0069 C3 00 01       JP 0100

# HEADOVER.I    Start addr: 0x4000, length 0x33FC, Enter Point 0x0000

	    0  1  2  3  4  5  6  7  8  9  A  B  C  D  E  F
4000 : 00 04 07 08 03 06 02 01 14 0B 0F 09 19 18 1A 0D
4010 : 00 00 3A 00 40 CD 0E BC 21 01 40 3E 0F F5 E5 46
4020 : 48 CD 32 BC E1 23 F1 3D F2 1D 40 46 48 CD 38 BC
4030 : DD 21 FB 73 21 FF FF 01 00 40 DD 7E 00 5F FE 70
4040 : 20 08 DD 7E FF FE 51 7B 28 08 77 DD 2B ED A9 E0
4050 : 18 E8 DD 7E FE DD 56 FD DD 2B DD 2B DD 2B DD 2B
4060 : 77 ED A9 E0 15 28 D3 18 F7      [...]

Screen Data:
	4000 00       							Mode variable
	4001 04 07 08 03 						Color INK 15 to 12 : #6D0055 (or #800080), #FF0055 (or #FF0080), #FF00FF, #6D0000 (or #800000)
	4005 06 02 01 14						Color INK 11 to  8 : #FF0000, #0000FF, #000055 (or #000080), #00FFFF
	4009 0B 0F 09 19 			            Color INK  7 to  4 : #006DFF (or #0080FF), #FF6D00 (or #FF8000), #006D00 (or #008000), #FFFF55 (or #FFFF80)
	400D 18 1A 0D 00           				Color INK  3 to  0 : #FFFF00, #FFFFFF, #6D6D55 (or #808080), #000000
	4011 00            						Color Border : #000000

Entry:
Screen setup:
	4012 3A 00 40       LD A,(4000)			get A = 0
	4015 CD 0E BC       CALL BC0E			SCREEN SET MODE in A, A=0 : 160x200 pix x 16 colors
Ink setup:
	4018 21 01 40       LD HL,4001			HL = pointer on color array
	401B 3E 0F          LD A,0F				A = ink nb
Loop_pen_colors:
	401D F5             PUSH AF
	401E E5             PUSH HL
	401F 46             LD B,(HL)			B = color
	4020 48             LD C,B				C = same color (no flash)
	4021 CD 32 BC       CALL BC32			SET INK COLOR, A= INK number, B and C the 2 colors (flashes if different)
	4024 E1             POP HL
	4025 23             INC HL				next color
	4026 F1             POP AF
	4027 3D             DEC A				next ink
	4028 F2 1D 40       JP P,401D			while A >= 0 Loop_pen_colors
Border color:
	402B 46             LD B,(HL)
	402C 48             LD C,B
	402D CD 38 BC       CALL BC38			SET BORDER COLOR, B and B the colors

#This will decompress the image data and put the result at addr C000-FFFF
#Reminder: one line is 80 bytes (#50), interlaced with 8 lines;
#          so line 0: #C000, line 1: C800, line 2: D000 ... line 7: F8000
#             line 8: #C050, line 9: C850, ...
#          addr line N = #C000+(#0800 * (N MOD 8))+(#50*serie) with serie= int(N / 8)
# Note Mode 0 : 2 pixels per byte: pix0=[b7,b5,b3,b1), pix1=[b6,b4,b2,b0]
#This algorithm looks for the "#70,#51,pixdata,nbtimes" repeat code, and repeats the pixdata nb times
#If it does not find this code, it simply copies one pixdata byte
Decompress Loading cover image:
	4030 DD 21 FB 73    LD IX,73FB			idx = #73FB (last byte of the HEADOVER.I file)
	4034 21 FF FF       LD HL,FFFF			HL=FFFF
	4037 01 00 40       LD BC,4000			BC=4000
Next Data:
	403A DD 7E 00       LD A,(IX+00)		A= array[idx] = #70 for the first loop
	403D 5F             LD E,A				prevA : E=A
	403E FE 70          CP 70				Compa : A == #70 ? if equal then Z=1, if not-equal then Z=0 (performs a "A - val" without storing the result in A, but updating the flags)
	4040 20 08          JR NZ,404A			Jump(relative) if Z = 0; Here if current A is not #70 then jump "Copy one pixel data, once"
											so A was #70
	4042 DD 7E FF       LD A,(IX+FF)		A= array(idx-1]
	4045 FE 51          CP 51				Compa: A == #51 ? if equal then Z=1, if not-equal then Z=0
	4047 7B             LD A,E				A=prevA (dans E = #70 = 112)
	4048 28 08          JR Z,4052			If compa was #51 then jump "Copy one pixel data, D times", else copy one byte #70
Copy one pixel data, once:
	404A 77             LD (HL),A			Load A in (HL)
	404B DD 2B          DEC IX				IX--
	404D ED A9          CPD					CP (HL); Zflag set if A==(HL); DEC HL, DEC BC (P/V bit set if BC < 0)
	404F E0             RET PE				RET if P/V flag (overflow) bit is set
	4050 18 E8          JR 403A				Jump Next Data
Copy one pixel data, D times:
	4052 DD 7E FE       LD A,(IX+FE)		A=array[idx-2]
	4055 DD 56 FD       LD D,(IX+FD)		D=array[idx-3]
	4058 DD 2B          DEC IX
	405A DD 2B          DEC IX
	405C DD 2B          DEC IX
	405E DD 2B          DEC IX				IX -= 4 (the repeat code #70,#51,pixdata,nbtimes is 4 bytes, so to go to next data need to move the pointer by 4 bytes)
Copy loop:
	4060 77             LD (HL),A			Load A in (HL)
	4061 ED A9          CPD					CP (HL); Zflag set if A==(HL); DEC HL, DEC BC (P/V bit set if BC < 0)
	4063 E0             RET PE				RET if P/V flag (overflow) bit is set
	4064 15             DEC D				D--; Flags P/V, Z etc updated as needed
	4065 28 D3          JR Z,403A			if D < 0 then jump Next Data
	4067 18 F7          JR 4060				else jump Copy loop

Cover image compressed Data:
	    0  1  2  3  4  5  6  7  8  9  A  B  C  D  E  F
4069 :         [...]              34 00 51 70 14 3C 3C
4070 : 05 00 51 70 55 AA 09 00 51 70 54 FC 0C 00 51 70
4080 : 04 86 0C 49 C3 C3 0C 0C C3 C3 86 0C 49 C3 C3 0C
4090 : 0C C3 C3 49 86 C3 C3 0C 49 08 09 00 51 70 4C 06
40A0 : 00 51 70 50 F0 F0 F0 00 14 3C 3C 00 C0 C0 09 CF
40B0 : 51 70 DE B9 8B FC FC A8 01 03 00 41 C3 82 06 00
40C0 : 51 70 01 83 43 83 03 03 C3 C3 03 03 03 43 05 C3
40D0 : 51 70 03 03 43 83 03 43 83 43 02 00 00 55 FF FF
40E0 : FF 00 00 00 00 04 8C 88 00 00 00 50 F0 F0 F0 00
40F0 : 00 00 45 CF CF 9A 30 30 20 CF ED 8E 03 FC A8 FC
4100 : 33 CF FC 03 13 67 01 02 09 00 51 70 05 05 0F 0A
4110 : 00 00 0F 0F 00 00 05 0F 0A 00 00 0F 0F 00 00 0A
4120 : 05 0F 0A 05 0A 0A 41 C3 D7 FF AE 08 0C 51 70 08
[...]  88 28 04 0C 0C 0C 00 CF CF CE CC 45 CF CF 8B 56 FC A8 54 FC FC FC FC 13 CF 06 0C 19 67 FC 33 20 00 51 70 40 C0 08 00 00 00 AD 41 C3 C3 0A CC 3C 00 00 00 9C 3C 28 44 4C 00 45 CF CE 88 CF 8B FC A8 54 FC FC 54 54 FC FC FC 02 01 08 00 0C 09 13 FC B9 67 CF CF 15 00 51 70 41 C3 C3 C3 C3 00 00 04 48 00 68 90 8C 1C 5C AD 05 FC FC AD 44 28 04 04 00 9C 00 0C 08 33 44 8C CC 03 FC FC 22 FC 00 54 FC FC 00 00 54 56 06 00 04 08 00 03 FC B9 36 3C 28 29 47 8A 0A 00 51 70 0C 0C 0C 30 0C 4C 88 CC 28 08 00 51 70 04 48 00 0C 64 64 8C 0D 86 1C 00 00 00 00 44 3C 3C 14 36 28 00 39 14 36 66 CD 54 5C FC 02 56 00 54 FC FC 00 00 03 0C 06 00 03 02 14 3C 28 00 00 03 00 8A 1C 45 8A 06 00 51 70 10 30 30 18 CC 44 CC CC 0C 98 00 10 CC 28 0C CC 28 00 00 00 54 0C AD 5E E9 30 30 64 CC CC 9C 9C 68 00 00 14 44 9C 00 28 00 00 33 36 03 A8 54 A9 09 00 FC 00 54 88 FC 88 88 88 02 CC 00 44 88 00 FC A8 00 00 03 00 8E 08 28 CF 05 00 51 70 30 30 30 24 CC 98 30 00 10 CC 18 30 CC 0C 0C 98 30 00 00 00 2D 54 0F C3 C3 5E FC C3 30 30 CC CC CC 0C C0 00 00 FF FF AA 00 00 00 3C 3C 3C 3C 2C 56 FC 36 FC 36 FC 03 00 3C 28 14 28 05 00 51 70 7C 02 3C 3C 3C 3C 2C 19 3C 3C 00 00 00 00 10 30 30 30 30 24 98 30 30 24 0C 0C CC CC 98 00 48 05 00 51 70 80 C3 82 FC 00 00 00 00 0C 0C 48 C0 80 00 00 14 3C 2C 2E 0C 3E 3C 3C 3C 28 6D DE FC FC A9 A8 14 3C 28 01 56 FC FC 00 54 FC 00 00 00 01 02 04 08 01 56 00 CF CF CF 00 00 00 00 30 0C 0C 0C 0C 18 CC 8C 4C CC CC CC CC 98 07 00 51 70 40 00 9C 05 0A 05 00 51 70 CC 9C 39 3C 39 6C 3C C0 C4 99 7B 37 2E B7 0C 3F 3C 3C 66 6C 28 04 01 03 00 00 FC FC 00 00 54 02 00 06 00 0C 0C 00 10 20 CF 30 45 CF 8A 00 00 00 0F 1A 0C 30 0C 18 CC 9C 0C CC CC 0C CC CC CC CC 20 05 00 51 70 9C 14 0F 0F 00 CC 44 9C 33 28 CC 3C 36 66 3C 08 00 04 0C 6C 33 B7 3F 3F 3F 36 9C 9C 6D 8B 03 02 56 FC 00 00 FC 00 00 00 01 03 0C 00 44 CC 20 00 CF CF 9A 20 CF CF 00 00 05 0F FC 0E 64 CC CC CC 34 10 CC 2C CC 98 14 06 CC 51 70 3C 28 28 0F 0F 5E 00 14 28 0C 0C CC 39 CC CC 99 88 3C 9C 00 00 00 00 14 6C 9C 3C CC CC 3C 9C 9C 03 03 A8 CF FC 00 00 FC FC 03 00 44 CC 88 00 00 00 CF CF CF 9A 20 CF CF 00 00 00 FC AD AD 18 64 CC 6C 98 33 3C 3C 9C 3C 9C 05 CC 51 70 39 28 00 AD 5E 0F 00 00 CC 3C 3C C0 84 11 6C 8C 4C 3C 14 66 CC 28 00 00 00 00 04 00 00 48 9C 39 6C 6D CF FC A8 DE FC A8 8A 9E 3C 68 00 00 00 C5 CF CF CF CF CC 88 CF CF 9B 33 33 00 05 0F 0F 0F 30 30 30 0C 0C 0C 0C 08 AD 82 5E 03 56 E9 87 05 00 51 70 84 4C 9C 3C C0 0C 40 40 40 40 36 3C 9C 9C 28 28 14 3C CC CC CC CC 9C 3C 68 99 6C 36 98 30 5C FC 00 CF 3C 3C 6D CA 0C 04 80 49 4A 84 04 3C 28 CF CF CF 8A 05 00 51 70 54 5E 5E B8 38 34 06 30 51 70 AD 54 0F 5E 0F 0F 0A 4A 84 0C 4C 9C 3C 68 0C 07 40 51 70 0C 0C 0C 9C 28 11 3C 44 3C CC 26 0C CC 36 28 6C 3C 39 3C 3C 24 00 45 06 CF 51 70 4D 84 80 84 94 45 CF CF 8F 0F 0F 0A 07 00 51 70 05 0F AD 0F 0F AD 0F AD 0F 0F 7C 5E 00 54 00 A8 0E 4C 9C 3C 68 0C 48 06 40 51 70 00 00 00 44 CC 88 04 42 CC CC 3C 3C 28 9C 39 3C 3C 11 33 14 66 00 14 28 08 00 51 70 44 CD 00 45 CE 80 00 00 00 41 C3 C3 C3 08 00 51 70 40 05 AD 0A 00 54 08 48 48 6C CC CC CC 1C 3C 68 0C 48 07 40 51 70 36 3C 9C CC 9C 11 39 9C 3C 3C 0C 48 CC 3C 3C 3C 6C 3C CC 6C CC 9C 66 00 00 41 C3 82 55 FF FF FF 54 FC 00 0C 0C 0C C0 C0 C0 80 0C 00 51 70 C3 C3 05 40 51 70 05 C0 51 70 0C 0C 0C 0C 07 40 51 70 11 36 36 9C CC CC CC CC 28 8A CF 6D 00 3C 2C 0C 03 CC 9C 9C 6C 0A 00 51 70 55 FF FF FF 00 00 04 4C 2C 9C 48 C4 C8 CC C0 0B 00 51 70 C3 C3 C3 C3 C6 CC 09 C0 51 70 06 40 51 70 33 36 36 3C 9C 05 CC 51 70 9C 67 9B 9B 9B 9B 00 44 3C 88 14 3C CF 67 00 00 00 C3 C3 C3 C3 82 07 00 51 70 04 4C 0C 8C 0C 05 C0 51 70 6D 04 08 08 00 51 70 11 33 33 33 66 CC 8C 3C 3C 3C 68 C0 C0 C0 C0 40 40 11 33 33 36 36 9C 08 CC 51 70 28 33 CF 8A 11 33 45 00 6D 6D 6D 00 C0 C0 C0 D4 FC FC 0D 00 00 0F 0F 0F 00 00 00 00 05 0C 51 70 48 C0 C0 6D 3C 04 C0 09 00 51 70 11 05 33 51 70 22 44 08 3C 51 70 39 00 00 11 33 22 14 33 CF 67 67 67 33 6D 39 05 67 51 70 CF 67 67 33 8A 36 28 45 3C CF 33 D4 0D 08 00 51 70 04 48 0C 33 CC CC CC CC 3C 36 00 48 C0 12 00 51 70 9C 06 3C 51 70 C3 C3 00 00 00 04 D6 FC FC FC 6D 6D 6D 3C 3C 6D 9B 22 00 00 6D 6D 00 00 00 6D CF 9B 33 33 45 04 0A 0D 00 51 70 0C 0C 0C 48 84 48 C0 80 0F 00 51 70 41 C3 C3 82 44 3C 3C 3C 3C 28 00 00 80 80 C0 85 0F 0E 5C FC FC ED CF 67 33 67 22 11 33 45 CF CF CF 9E 9E CF 67 67 33 22 8A 05 0A 2A 00 51 70 44 3C 3C 00 00 00 00 80 05 C0 51 70 40 07 00 51 70 0F 0F 0F 0E 0C FC CF CF CF CF 8A 00 54 FC 0D 83 00 51 70 14 3C 3C 05 00 51 70 55 AA 09 00 51 70 56 FC A8 0B 00 51 70 04 86 0C C3 C3 C3 0C 0C C3 C3 86 0C 49 C3 C3 0C 0C C3 C3 49 86 C3 C3 0C 49 08 09 00 51 70 4C 88 05 00 51 70 50 F0 F0 F0 A9 03 3C 3C 00 C0 C5 09 CF 51 70 FC B9 CF FC FC 02 00 06 00 41 C3 82 06 00 51 70 54 D6 E9 D6 FC FC C3 C3 FC FC FC E9 05 C3 51 70 FC FC E9 D6 FC E9 D6 E9 A8 00 00 55 FF FF FF 05 00 51 70 4C 4C 00 00 00 50 F0 F0 F0 00 00 00 CF CF CF 30 30 20 00 CF ED 09 56 FC A8 FC 33 CF A9 03 13 67 8B 02 09 00 51 70 05 05 0F 0A 00 00 0F 0F 00 00 05 0F 0A 00 00 0F 0F 00 00 0A 05 0F 0A 05 0A 0A 41 C3 C3 00 00 09 CC 51 70 14 04 05 0C 51 70 4D CF CC 88 CF CF CF 09 FC A8 A8 54 FC FC FC 54 13 CF 06 0C 19 67 FC 33 8A 1F 00 51 70 04 C0 08 00 0C 00 AD 41 C3 0F 0A 44 9C 00 04 08 9C 3C 3C 44 8C 88 45 CF CE 88 CF A9 FC 00 54 FC FC FC 54 54 FC A9 02 01 08 00 0C 03 13 FC B9 67 CF CF 15 00 51 70 41 C3 C3 C3 C3 00 00 04 80 00 38 64 8C 0D 5C AD 54 5E FC 0F 44 28 00 08 00 88 04 0C 08 33 44 CC 4C 89 FC FC 00 FC 00 54 FC FC 00 00 54 A9 06 00 04 02 01 56 FC 11 3C 3C 00 03 47 CF 09 00 51 70 04 0C 18 30 18 24 CC 44 44 9C 08 00 51 70 04 48 80 10 30 CC 0C 0D 4B 6C 28 00 00 00 44 3C 28 00 39 3C 14 22 14 33 CC 67 DE FC FC 00 56 00 54 FC FC 00 A8 06 09 09 02 03 00 3C 3C 00 00 00 03 45 8B 1C 45 8A 06 00 51 70 18 30 30 4C 88 CC CC CC 24 CC 20 10 CC 0C 0C 64 34 28 00 00 54 03 AD 5E FC 92 30 64 CC CC CC 6C 68 00 00 00 00 28 28 00 00 00 33 36 56 00 DE AC 56 00 FC 00 54 88 FC 88 CC 88 00 CC 00 44 CC 00 FC A8 00 00 02 45 8E 08 28 CF 05 00 51 70 30 30 30 24 CC 98 30 20 00 24 4C 64 0C 0C 0C 4C 30 00 00 00 2D 0A AD D6 87 D6 FC 4B 30 30 64 CC CC 48 C0 00 00 FF FF AA 00 00 00 3C 3C 3C 3C 29 56 FC 36 FC 36 FC 03 14 3C 3C 3C 3C FC A8 3C 3C 3C 29 02 3C 3C 3C 3C 2C 13 3C 3C 00 00 00 00 10 30 24 0C 30 24 30 30 30 0C 4C CC 4C CC 98 04 48 05 00 51 70 80 C3 C3 05 00 51 70 0C 0C C0 C0 00 00 00 6C 6C 3C 1D 3F 1C 9C 3C 3C 3C 45 DE FC FC A9 00 3C 3C 00 01 56 A8 A8 00 54 A8 00 00 00 01 08 04 08 01 A8 45 20 CF CF 00 00 00 00 30 0C 0C 0C 0C 18 CC 8C 4C 05 CC 51 70 20 06 00 51 70 40 00 9C 05 0F 00 00 44 88 44 8C 1C 6C 33 6C 9C C0 0C 1C 99 7B 19 2E B7 59 B7 3C 39 9C CC 00 09 01 03 00 00 FC A8 00 00 54 02 00 06 00 0C 08 00 64 20 CF 30 45 CF 8A 00 00 05 0F 0F 0C 30 24 64 98 34 0C CC 8C 00 05 CC 51 70 00 00 00 00 44 28 28 0F 0F 44 36 99 99 3C 00 11 39 88 14 36 28 00 0C 0C 6C 33 73 B7 3F 7B 66 6C 6C 3C CF 03 03 FC FC 00 00 FC 00 54 00 03 03 08 00 CC CC 00 45 CF CF 9A 20 CF CF 00 00 05 0F 0F B8 64 CC CC 98 10 14 CC CC CC CC 20 6C 05 CC 51 70 3C 28 00 0F 0F 5E 00 14 44 0C CC 9C 6C CC 0C 9C 28 39 9C 00 00 00 00 14 CC 2C 0C 6C 9C 36 6C 3C 47 03 A8 CF FC 00 54 FC A9 02 00 CC CC 00 00 00 45 CF CF CF 30 8A CF CF 00 00 00 FC 5E 0F 18 64 CC 9C 98 33 36 3C 3C 11 3C CC 3C CC CC 9C 39 2D 54 0F 5E 0A 00 00 9C 3C 68 C0 08 91 6C CC 9C 9C 14 CC 9C 05 00 51 70 2C 00 04 48 9C 3C 6C 6D CF FC A8 DE FC A8 CF 3C 3C 00 80 04 00 C5 CF CF CF CE CC 45 CF CF 9B 33 33 00 05 0F 0F 0F 30 30 24 05 0C 51 70 AD 82 5E A9 56 AD 87 00 00 00 00 40 84 CC 3C 3C C0 08 80 80 80 80 36 3C 4C 9C 28 3C 44 3C CC CC 99 CC 66 39 68 3C 6C 14 98 38 5C A8 45 CF 14 3C 3C 68 0C 84 41 49 C2 C0 18 3C CF CF CF CF 06 00 51 70 54 AD FC 1A 38 34 38 30 30 30 30 38 AD 54 05 0F 0F 0F 0A 0E 0C 0C 4C 3C 3C C0 0C 06 80 51 70 C4 8C 0C 0C 9C 6C 11 3C 28 9C 66 CC 26 36 3C 28 CC 3C 39 3C 6C 2C 00 00 07 CF 51 70 8E 08 04 C5 28 CF CF 0F 4B C3 C3 C3 06 00 51 70 05 0F AD 0F 0F AD 0F AD 0F 1E 1C A8 00 00 FC 54 0E CC 3C 3C C0 0C 07 80 51 70 00 00 00 00 28 44 88 C4 9C 9C 3C 3C 3C 44 3C 3C 28 33 22 3C 66 00 14 0A 00 51 70 CC CF CE C8 C0 00 00 00 41 C3 C3 C3 09 00 51 70 80 AD 00 80 00 04 04 84 94 CC CC CC 9C 3C 68 0C 08 07 80 51 70 36 6C 6C CC 9C 22 28 9C 3C 2C 0C 42 CC 9C 3C 3C 9C CC 3C 6C CC 3C 66 00 00 41 C3 82 55 FF FF FF 54 FC 00 0C 0C 0C C0 C0 C8 80 0C 00 51 70 C3 C3 80 80 80 80 07 C0 51 70 0C 0C 08 07 80 51 70 91 33 3C 6C CC CC CC CC 6D 45 9E 8A 45 9C 2C 0C 42 9C 9C 9C 6C 0A 00 51 70 55 FF FF FF 00 00 04 CC 6C 9C 48 C4 C8 C4 C0 0B 00 51 70 C3 C3 C3 C3 C6 CC CC 08 C0 51 70 06 80 51 70 33 33 3C 6C 6C 05 CC 51 70 9C 67 CF 67 67 33 22 00 CC 00 28 6D 39 45 0F 00 51 70 04 0C 0C 8C 0C C0 C0 84 C0 94 3C 04 80 08 00 51 70 11 33 33 33 33 66 8C 3C 3C 3C 3C C0 C0 C0 C0 80 80 33 33 33 39 3C 6C 6C 07 CC 51 70 39 67 CF 6D 22 45 CF 9B 00 00 00 11 CF C0 C0 D4 FC FC 0D 00 00 0F 0F 0F 00 00 00 04 8C 05 0C 51 70 C0 94 6D 28 48 C0 0F 00 51 70 22 44 08 3C 51 70 28 00 00 11 33 22 4D 9B 33 9B 9B 9B 3C CF 39 33 9B 9B 9B 11 9B 9B 8A 9B 8A 36 6D 9E 6D 6D 33 AC 0F 08 00 51 70 04 0C C0 0C 66 CC CC CC 39 3C 04 C0 80 12 00 51 70 9C 06 3C 51 70 C3 C3 00 00 00 49 D6 FC FC FC 3C 9E 9E 9E 3C CF 9B 33 33 CF 05 00 51 70 45 CF CF 67 8A 8A 04 0A 0E 00 51 70 0C 0C 0C 48 C0 C0 10 00 51 70 41 C3 C3 82 00 9C 3C 3C 3C 28 00 40 40 40 C0 80 05 0F 0E 0C FC BC 9B 9B 9B 9B 11 33 67 45 06 CF 51 70 9B 9B 33 45 00 0D 00 00 FF 00 FF 00 55 FF 55 55 00 AA 55 AA 55 AA 55 AA 19 00 51 70 44 3C 3C 00 00 00 40 40 C0 C0 C0 C0 80 80 80 07 00 51 70 05 0F 0F 0F 0C A8 00 00 00 00 54 FC FC 0F 83 00 51 70 14 3C 3C 00 00 00 FF AA 0A 00 51 70 01 FC FC A9 0B 00 51 70 04 86 0C C3 C3 C3 86 49 C3 C3 C3 0C C3 C3 C3 86 49 06 C3 51 70 86 49 08 09 00 51 70 04 4C 05 00 51 70 50 F0 F0 F0 A9 03 00 00 00 C0 09 CF 51 70 DE FC B9 67 FC FC 02 00 0C 00 41 C3 82 06 00 51 70 54 D6 E9 D6 FC FC C3 C3 FC FC FC E9 D6 FC FC FC C3 FC FC E9 D6 FC E9 D6 E9 A8 00 00 55 FF FF FF 05 00 51 70 4C 8C 00 00 00 50 F0 F0 F0 00 00 45 CF CF 9A 30 20 45 CF CF ED 09 A9 FC A8 FC 33 CF A9 03 19 67 8B 02 09 00 51 70 05 05 16 0F 51 70 0A 0A 41 C3 C3 00 00 00 06 CC 51 70 88 00 3C 14 07 0C 51 70 CC 88 CF CF 8E 56 FC 00 A8 54 FC FC A8 01 B9 CF 0C 0C 19 67 FC 33 8A 1F 00 51 70 0C 48 84 10 8C 28 AD 41 0F 0F 0F 44 3C 00 0C 08 9C 38 3C 00 8C CC 45 CF CC 88 DE A9 FC 00 54 FC FC FC 00 54 FC 56 02 01 08 00 09 03 56 FC 33 CF CF CF 15 00 51 70 41 C3 C3 C3 C3 00 40 0C 80 00 38 CC 0C 2D 0C AD 0A AD FC 0F 00 9C 00 00 44 28 04 0C 08 33 28 CC 4C DC FC FC 00 A9 00 54 FC FC 00 00 54 03 06 00 01 02 01 56 A8 14 3C 28 54 03 47 CF 09 00 51 70 0C 0C 24 30 24 24 CC 44 CC CC 28 08 00 51 70 0C C1 B8 30 24 0C CC C3 9C 28 00 00 00 00 3C 14 28 39 33 39 14 39 33 CC 11 76 FC FC 00 56 00 54 FC 88 54 A8 0C 0C 03 02 02 14 3C 28 54 00 00 03 45 03 08 45 8A 06 00 51 70 30 30 30 4C 88 98 64 CC 8C CC 20 10 8C 0C 18 18 CC 9C 00 00 54 0B AD FC FC 92 30 64 CC CC CC 9C CC 80 08 00 51 70 33 36 02 45 DE AC 56 00 FC 00 54 88 FC 88 CC 88 00 88 00 44 44 00 54 A8 00 00 00 CF 8E 08 28 CF 00 00 00 00 10 30 30 30 24 CC 64 30 20 00 24 0C 8C 0C 0C 0C 0C 20 00 00 00 05 0A AD 4B E9 FC AD D6 10 30 30 CC 8C 48 80 00 00 FF FF AA 00 00 00 33 33 33 33 23 FC FC 22 FC A8 A9 02 11 33 33 76 11 FC A8 33 33 33 23 02 33 33 33 19 26 13 33 33 00 00 00 00 30 30 0C 0C 18 30 18 30 30 0C CC CC CC CC 88 0C 80 05 00 51 70 80 C3 82 A8 00 00 00 00 04 48 C0 80 00 00 14 9C 9C 9C 3F 3F 1C 6C 3C 3C 3C 45 DE FC FC A8 14 3C 28 00 01 FC 00 00 00 54 A8 00 00 00 01 08 04 08 01 00 9A 20 CF 8A 00 00 00 00 30 0C 0C 0C 0C 18 CC 8C 4C 05 CC 51 70 20 06 00 51 70 40 00 28 0F 0F 00 00 9C 3C 66 0C 4C 6C 36 66 9C 0C 0C 1C 99 3F A6 59 2E B7 B7 9C 3C CC 88 04 09 01 56 00 00 FC 00 00 00 01 02 00 06 00 0C 00 10 98 20 CF 30 45 CF 8A 00 00 05 0F 0F 18 30 30 64 CC CC 2C CC 08 14 05 CC 51 70 88 00 00 00 14 28 2D 0F 0A 44 39 28 14 00 28 28 22 88 3C 39 3C 00 0C 1C 9C 99 33 73 F3 B3 36 9C 9C 6D CF 03 03 FC FC 00 00 FC 00 FC 00 03 06 00 44 CC 88 00 45 CF CF 9A 20 CF 8A 00 00 05 0F 0F 1A 64 CC CC 9C 00 6C 05 CC 51 70 14 CC CC CC CC 9C 6C 00 00 0F 0F 0A 00 00 44 0C CC 9C 6C CC 0C 1C 88 3C 66 05 00 51 70 3C 0C 0C 1C CC 39 9C 3C CF 56 A8 CF FC 00 54 FC A9 00 44 CC 88 00 00 00 45 CF CF CF 30 45 CF 8A 00 00 05 FC AD FC 18 CC CC 6C 9C 11 33 39 33 00 33 3C 33 3C 6C CC 36 00 5E 0A 05 A8 00 44 9C 3C C0 84 40 11 6C CC CC 28 6C CC 3C 05 00 51 70 28 00 04 48 9C 33 6C 6D CF FC FC 54 FC 00 9E 3C 28 80 00 04 08 C5 CA CF CF 6C 64 45 CF CF 9B 33 33 00 05 0F 0F 0F 30 30 24 30 0C 0C 0C 0C E9 00 FC A9 56 0F 87 00 00 00 00 C0 0C 9C 3C 68 84 48 40 40 40 40 36 0C 2C CC 39 3C 44 3C CC CC CC 66 99 3C 28 39 6C 3C 6C 30 24 00 CF CF 8A 3C 3C 68 48 48 4B 0C 86 C0 18 45 CF CF CF CF 06 00 51 70 FC FC AD 0F 34 30 3C 05 34 51 70 AD 54 05 0F 0F 0F 0A 0E 0C 0C 9C 3C 68 84 48 06 40 51 70 14 CC 0C CC 9C 88 33 36 28 9C 6C 66 CC 99 9C 28 9C 3C 88 14 3C 2C 00 00 00 06 CF 51 70 CA 0C 40 00 9E CF 05 0F 4B C3 C3 C3 07 00 51 70 5E 0F 0F 5E 0F 0F AD 0F 6C 6C 2C 28 00 0A 05 0C 9C 3C 3C 84 0C 06 40 51 70 00 00 00 00 9B 6D CE CC CC 6C 3C 3C 3C 3C 28 CC 88 88 36 6C 3C 39 88 14 41 C3 82 00 00 00 FC FC FC 00 C4 CC C8 C0 C0 00 00 00 41 C3 C3 C3 08 00 51 70 40 00 A8 40 40 40 00 08 48 48 4C CC CC 9C 3C 84 0C 07 40 51 70 11 36 9C CC CC 9C 11 28 44 3C 2C 0C 42 9C 9C CC 9C 6C 6C 3C 9C 3C 33 88 00 00 41 C3 82 55 FF FF FF 00 00 00 0C 0C 0C C0 C0 CC 80 0C 00 51 70 C3 C3 C2 40 40 40 40 07 C0 51 70 0C 08 40 51 70 33 36 3C 9C CC CC CC CC 6D 45 6D 28 45 44 8C 0C 42 9C 9C 3C 88 00 00 00 00 C3 C3 C3 C3 82 00 55 FF FF FF 00 00 04 CC 6C 9C 48 C4 C8 C4 C0 10 00 51 70 CC CC C8 08 C0 51 70 40 40 40 40 11 33 36 36 3C 06 CC 51 70 9C 67 9B 9B 11 11 45 28 00 45 14 9E 67 67 08 00 51 70 0F 0F 0F 00 00 00 00 04 0C 0C 0C 0C 48 C0 C0 C0 94 9E 04 80 08 00 51 70 11 05 33 51 70 26 05 3C 51 70 C0 C0 C0 40 40 33 33 36 36 3C 9C 08 CC 51 70 39 9B 9E CF 8A 45 9E CF CF 00 00 67 3C CF C0 C0 FC FC 0D 00 00 0F 0F 0F 00 00 00 04 CC 05 0C 51 70 C0 94 9E 28 48 80 10 00 51 70 44 08 3C 51 70 28 00 00 11 33 22 4D 33 33 33 33 36 6D 9B 36 67 45 45 67 45 45 45 45 11 8A 67 3C 3C 6D CF 33 AC 0A 09 00 51 70 0C 0C 84 19 66 CC CC 99 28 04 C0 80 12 00 51 70 9C 05 3C 51 70 69 C3 C3 00 00 00 49 FC FC FC FC 6D 6D 6D 6D CF CF 67 33 22 CF 33 CF CF 8A CF 8A 00 CF CF CF 00 05 0A 0E 00 51 70 04 0C 0C 0C C0 C0 10 00 51 70 41 C3 C3 82 00 9C 3C 3C 3C 00 00 00 80 C0 C0 C0 80 05 0F 0F 0C 08 CF 67 33 67 67 67 8A 54 06 CF 51 70 67 33 22 67 00 0D 00 00 AA 00 AA AA 00 AA 09 55 51 70 1A 00 51 70 44 3C 28 00 00 00 00 80 05 C0 51 70 40 0A 00 51 70 0F 0F 0F 0C 08 00 00 FC FC FC AC 0A 83 00 51 70 14 3C 3C 00 00 00 FF AA 0A 00 51 70 09 FC FC A9 0B 00 51 70 04 86 49 C3 C3 C3 86 49 C3 C3 C3 0C C3 C3 C3 86 49 06 C3 51 70 86 49 08 09 00 51 70 04 4C 05 00 51 70 50 F0 F0 F0 A9 03 00 00 00 C5 09 CF 51 70 FC FC B9 67 FC A9 02 00 0C 00 41 C3 82 06 00 51 70 54 D6 E9 D6 FC FC C3 C3 FC FC FC E9 D6 FC FC FC C3 FC FC E9 D6 FC E9 D6 E9 A8 00 00 55 FF FF FF 05 00 51 70 04 8C 88 08 00 51 70 45 CF CF 9A 30 45 CF CF CF ED 09 56 FC A8 FC 33 CF 03 06 13 67 8B A8 0A 00 51 70 0A 0F 0A 00 00 0F 0F 00 00 05 0F 0A 00 00 0F 0F 00 00 0A 05 0F 0A 05 05 00 41 C3 C3 00 05 0A 00 CC CC 00 3C 00 00 3C 08 00 00 05 CC 51 70 88 CC 45 CF CF 09 56 FC 00 A8 54 FC FC A8 54 13 CF 0C 0C 13 67 FC 33 CF 1F 00 51 70 0C 0C 84 90 8C 28 AD 05 0F 5E AD CC 3C 00 0C 08 9C 20 00 33 CC 4C CD CF 6C 45 56 A9 FC 00 54 FC FC FC 00 54 FC A9 02 04 08 00 03 03 FC FC 33 CF 28 CF 15 00 51 70 41 C3 C3 C3 C3 00 40 48 00 00 64 8C 0C 8D 0C AD 0A AD 0F 0A 00 3C 00 00 44 28 04 0C 00 33 39 44 8C CC FC FC 00 A9 00 54 FC FC 00 00 01 03 06 00 01 02 01 FC 00 3C 3C 00 A9 03 47 CF 08 00 51 70 04 0C 18 30 0C 0C 24 CC 44 CC 64 28 08 00 51 70 84 D4 00 30 0C 0C CC CC 6C 3C 00 00 00 00 9C 6C 28 36 22 00 28 36 33 9C 11 FC FC A9 00 FC 00 54 EC CC 44 88 CC 44 CC 88 CC 88 14 00 FC 00 00 03 01 06 08 28 8A 05 00 51 70 04 30 30 24 4C 20 30 30 CC 8C CC 98 10 0C 18 0C CC CC 98 28 00 54 4B AD FC AD 4B 30 30 CC CC CC 6C 6C 80 08 00 51 70 33 36 00 CF DE 06 56 00 FC 00 54 88 FC 88 CC 88 00 88 00 EC 44 00 54 A8 00 00 45 CF 8E 08 28 CF 00 00 00 00 10 30 30 30 24 4C 98 30 30 00 24 4C 0C 18 24 0C 0C 24 00 00 00 00 0A AD 4B E9 5E 4B D6 10 30 64 CC 0C C0 80 00 00 FF FF AA 14 14 00 3C 3C 3C 3C 29 FC FC 36 FC A8 A9 00 3C 3C 14 FC 14 FC A8 7C 14 3C 29 02 36 3C 2C 1C 09 B9 36 3C 00 00 00 00 30 30 0C 0C 0C 30 30 30 24 4C CC CC CC CC 20 C0 06 00 51 70 80 54 00 A8 05 00 51 70 C0 C0 00 00 00 14 6C 6C 6C 33 3F 1C 9C 9C 3C 3C 3C DE FC FC 00 3C 3C 00 02 01 FC 00 00 00 54 A8 00 00 00 01 08 0C 08 00 45 9A 20 CF 8A 00 00 00 00 1A 0C 0C 0C 0C 18 64 8C 4C 05 CC 51 70 20 06 00 51 70 40 44 28 AD 0F 00 00 3C 33 66 0C 4C 9C 36 CC 68 0C 0C 0C 99 3F 7B 0C 59 3F B7 6C 3C CC 00 0C 03 00 56 00 00 FC 00 00 00 01 02 00 0C 00 08 00 30 30 45 CF 30 45 CF 00 00 00 0F 0F 0F 18 05 CC 51 70 2C CC 08 14 06 CC 51 70 00 00 44 14 14 54 0F 0A 9C 39 22 00 3C 3C 14 00 14 39 3C 3C 04 00 14 CC 39 33 33 33 33 3C 6C 6C 3C CF 03 03 A8 FC 00 00 FC 00 A9 00 03 02 00 CC CC 00 00 45 CF CF 30 45 CF 8A 00 00 05 0F 0F 1A 64 CC CC 9C 11 3C 05 CC 51 70 88 6C CC CC CC 3C 28 00 05 0F 0F 3C 28 14 04 0C CC 3C CC 8C 0C 1C 28 66 CC 05 00 51 70 2C 0C 0C 48 CC 3C 6C 9C CF 56 A8 CF FC 00 54 FC 02 00 64 CC 00 00 00 00 CF CF CF 9A 88 CF CF 8A 00 00 54 FC FC 0F 18 CC CC 9C 9C 00 33 33 00 FC 00 33 00 33 36 9C 36 00 54 00 00 A8 00 CC 3C 3C C0 08 80 91 6C CC 9C 00 3C CC 28 3C 3C 00 00 14 3C 00 04 C4 3C 36 98 6D CF FC FC 54 A8 45 3C 3C 40 04 00 04 08 C5 48 CF 9E CC 88 CF CF CF 33 33 33 00 05 0F 0F 0F 06 30 51 70 0C 0C E9 00 5E FC FC AD 87 00 00 00 40 0C 4C 3C 3C C0 0C 05 80 51 70 26 0C 0C CC 39 3C 44 3C CC 99 8C CC 9C 3C 00 36 6C 14 6C 34 24 45 CF CF CF 00 3C 3C 48 C0 C3 48 0C 40 4D CF CF CF CF 8A 06 00 51 70 FC FC 0F 0F 30 38 31 38 38 38 3C 39 AD 54 05 0F 0F 0F 0A 0E 0C 4C 9C 3C 68 0C 08 06 80 51 70 9C CC CC CC 3C 99 33 33 28 36 3C 39 99 6C 3C 44 14 6C 00 14 6C 2C 00 00 00 45 05 CF 51 70 8C 84 48 00 9E 00 05 0F 4B C3 C3 C3 07 00 51 70 5E 0F 0F 5E 0F 0F AD 0F 9C 9C 9C 0C 08 05 0E 4C 9C 3C 68 0C 08 07 80 51 70 00 00 CF 36 8A CC CC 9C 9C 3C 3C CC 3C 3C 00 11 39 3C 3C CC 39 88 00 41 C3 82 00 00 00 FC FC FC 00 48 C0 C0 C0 C0 00 00 00 41 C3 C3 C3 09 00 51 70 80 00 80 80 80 80 84 04 84 0C 4C CC CC 3C 0C 08 07 80 51 70 33 3C 6C CC CC 9C 22 36 44 3C 2C 0C 80 3C 6C CC CC 3C 3C 3C 99 33 CC 06 00 51 70 55 FF FF FF 00 00 00 0C 0C 0C C0 C8 CC C0 0C 00 51 70 C3 C3 C3 80 80 80 09 C0 51 70 07 80 51 70 91 33 39 6C 6C CC CC CC CC 28 45 9E CF 9E 00 44 04 42 9C 6C CC 45 00 00 00 00 C3 C3 C3 C3 82 00 55 FF FF FF 00 00 04 CC 6C 9C 48 94 CC C0 C0 80 0F 00 51 70 CC CC CC 07 C0 51 70 05 80 51 70 33 33 39 3C 6C 6C 05 CC 51 70 9C 14 CF 33 33 9B 9E 00 11 11 CF 9B 9B 45 FC FC 06 00 51 70 0F 0F 0F 00 00 00 00 04 0C 0C 0C 0C 48 C0 48 C0 3C 8A 04 80 08 00 51 70 11 05 33 51 70 22 9C 3C 3C 3C 3C 68 C0 C0 80 80 9B 33 39 3C 6C 6C 08 CC 51 70 39 CF CF 6D 45 6D 28 6D 67 8A 11 9E 3C 3C CA C0 FC AC 0F 00 00 0F 0F 0F 00 00 00 0C CC 8C 0C 0C 0C 0C C0 3C 9E 00 48 80 10 00 51 70 44 08 3C 51 70 C3 00 00 00 00 04 82 9B 33 33 33 3C CF 33 36 33 8A 8A 9B 8A 8A 8A 8A 67 00 36 9E 9E 9B 9B 11 AC 0A 09 00 51 70 0C 0C 48 84 19 66 CC 9C 28 0C C0 80 12 00 51 70 9C 05 3C 51 70 69 C3 C3 00 00 04 C3 FC FC FC FC 6D 9E 9B CF 9B 9B 33 CF 45 9B CF 3C 9E 6D 3C 3C 9B 00 00 00 00 0D 10 00 51 70 0C 0C 0C C0 C0 10 00 51 70 41 C3 C3 82 00 9C 3C 3C 3C 00 00 40 40 40 C0 C0 80 80 05 0F 0F 0E 67 9B 9B CF CF 8A 00 FC CF CF CF CF 9B 9B 9B 33 11 45 00 0F 00 00 AA 00 AA AA 00 AA 09 55 51 70 1B 00 51 70 9C 28 00 00 00 40 40 05 C0 51 70 80 80 0A 00 51 70 05 0F 0F 0E 0C FC FC FC FC AC 0A 55 00 51 70 04 16 0C 51 70 08 16 00 51 70 14 3C 3C 00 00 00 FF AA 00 45 CF CF CF CF 00 00 00 04 56 FC A8 03 02 0A 00 51 70 04 86 49 C3 0C 49 C3 C3 86 0C C3 C3 C3 0C 49 C3 C3 86 0C C3 C3 0C C3 86 49 08 00 00 55 FF FF FF 00 00 00 04 8C 88 00 00 00 00 50 F0 F0 F0 A9 03 00 00 00 09 CF 51 70 8B FC FC 33 67 FC A9 02 00 0C 0A 00 51 70 05 87 4B C3 0F 4B C3 C3 87 0F C3 C3 C3 0F 0F C3 C3 87 0F C3 87 0F 4B 87 4B 0A 41 C3 D7 FF FF FF 06 00 51 70 4C 08 08 00 51 70 CF CF CF 30 20 CF CF CF DE ED 03 FC FC A8 FC 33 CF 03 06 19 67 8B A8 0A 00 51 70 0F 16 00 51 70 0F 05 00 51 70 0A 05 0A 00 00 9C 3C 3C 3C 33 08 6C 00 00 44 CC CC CD CE 88 CF CF CF 09 56 FC 00 A8 54 FC FC A8 01 13 CF 06 09 13 67 FC 33 CF 16 00 51 70 41 C3 C3 C3 C3 00 00 00 04 48 0C C0 90 8C 7C AD 05 0F FC AD 44 28 04 0C 08 9C 20 00 11 66 8C CC CF 9C 01 FC B9 FC 00 54 FC FC A8 00 54 FC 03 02 04 08 00 03 03 FC B9 33 9E 28 CF 8A 14 00 51 70 41 C3 C3 C3 C3 00 04 C0 00 04 64 0C 4C 8D 0E AD 0F 54 AD A8 14 99 28 00 99 28 04 04 00 39 39 44 CC 4C FC FC 54 06 00 54 FC FC 00 00 01 03 0C 00 01 03 01 A8 14 3C 28 54 03 03 47 CF 08 00 51 70 04 18 30 24 CC 8C 0C CC 44 CC CC 9C 08 00 51 70 48 80 0F 24 0C 4C CC CC 9C 9C 28 00 00 14 14 88 9C 11 33 22 28 33 33 6C 01 FC FC A9 00 FC 00 54 EC 44 44 88 CC 44 CC 88 CC CC 00 54 FC 00 00 03 03 06 08 28 8A 05 00 51 70 10 30 30 24 CC 98 30 30 CC CC 4C 98 0C 0C 18 30 30 30 CC 28 00 FC 4B AD FC AD 4B 30 30 CC CC CC 9C CC C0 08 00 51 70 3C 3C 3C 3C 7C 09 56 36 FC 33 7C CC 44 88 44 14 3C 88 88 EC 44 14 7C A8 36 3C 3C 3C 2C 19 36 3C 00 00 00 00 10 30 30 30 30 4C 64 30 30 30 0C 98 30 30 30 24 0C 04 00 00 00 40 0F 54 0A E9 C3 C3 A8 18 30 30 CC 0C C0 80 00 00 FF FF BE 6C 6C 3C 00 00 00 00 01 FC FC 00 FC A8 02 14 3C 28 54 FC 00 54 A8 FC 00 00 01 02 00 00 04 0C 03 A8 67 CF 00 00 00 00 30 24 0C 0C 0C 30 30 30 0C 4C CC CC CC CC 20 07 00 51 70 80 28 FC 06 00 51 70 40 80 00 3C 00 3C CC CC 9C 39 3F 1C 6C 3F 3E 3C CD FC FC A8 14 3C 28 01 02 54 FC 00 A8 00 54 A8 00 00 00 01 0C 0C 08 45 CF 9A 20 CF 8A 00 00 00 00 1A 0C 0C 0C 0C 18 CC 0C 4C 05 CC 51 70 98 06 00 51 70 80 44 28 5E AD 00 44 3C 39 44 0C 4C 6C 36 CC 2C 08 0C 0C CC 3F 3F F3 F3 7B 3F 9C 3C 88 8E 09 03 00 56 00 00 FC 00 00 00 01 02 01 0C 00 00 10 98 20 CF CF 30 45 CF 00 00 05 5E 0F 0F 18 CC 4C CC CC CC 2C CC 08 88 6C 06 CC 51 70 9C 38 14 14 5E 0F 0A 9C 39 36 00 CC 3C 28 3C 28 3C 3C 3C 28 40 80 9C 9C 39 33 33 66 39 3C 9C 3C CF 03 56 00 FC 00 00 FC 00 A9 00 03 00 44 CC 88 00 00 CF CF CF 30 45 CF 8A 00 00 05 0F 0F 18 64 CC CC 9C 33 6C 06 CC 51 70 14 6C CC 3C 28 00 00 AD 0F 1E 94 94 3C 2C 4C 9C 36 6C 8C 0C 1C 88 6C CC 05 00 51 70 0C 0C 0C 48 CC 39 9C 3C CF FC A8 CF FC 8A 54 FC 00 10 CC 88 00 00 00 45 CF CF CF CE 20 CF CF 8A 00 00 54 FC 0F 0F 18 CC CC 3C 34 00 00 00 00 AD A8 00 00 00 11 39 28 05 00 51 70 C0 CC 3C 68 C0 48 40 00 36 3C 28 00 3C 3C 28 06 3C 51 70 28 0C C4 39 33 98 24 CF FC FC 54 00 9E 3C 28 CA 04 08 0C 08 04 48 CF 6C 6C 45 CF CF 9B 33 33 33 00 05 0F 5E 5E 06 30 51 70 24 0C E9 05 5E FC FC AD 4B 0A 00 00 40 0C CC 3C 3C 84 48 05 40 51 70 2C 0C 0C CC 28 36 28 9C CC CC 26 26 CC 9C 00 36 9C 36 3C 9C 24 05 CF 51 70 00 3C 48 40 0C 48 0C 40 05 CF 51 70 07 00 51 70 FC 0F 0F 0F 0F 34 38 36 3C 3C 33 32 AD 82 AD 0F 0F 0F 0A 0C 0C CC 3C 3C 84 0C 06 40 51 70 00 14 CC CC CC 3C 88 00 00 00 66 39 6C 9C 36 3C 00 3C 88 88 00 3C 28 00 00 00 00 45 CF CF CF CF 88 80 40 00 CE 00 05 0F 4B C3 C3 C3 07 00 51 70 5E 0F 0F 5E 0F 0F AD 4E 6C 6C 6C 8C 0C C0 C0 CC 3C 3C 84 0C 07 40 51 70 00 00 45 CF 36 9B CC CC 6C 3C 3C 6C 9C CC 3C 28 33 36 6C 6C 9C 39 88 00 41 C3 82 00 00 00 FC FC FC 00 0C 0C 48 C0 C0 80 00 00 41 C3 C3 C3 08 00 51 70 07 40 51 70 C0 08 0C 0C 0C CC CC 2C 0C 48 07 40 51 70 33 3C 9C CC CC CC 39 45 00 CC C8 09 02 2C CC 3C CC 3C 3C 6C 44 CC 07 00 51 70 55 FF FF FF 00 00 00 1C 0C 8C C0 C8 6C C8 0C 00 51 70 C3 C3 C3 C2 40 40 09 C0 51 70 07 40 51 70 11 36 36 3C 05 CC 51 70 28 CF 6D 6D 3C 28 44 88 C0 9C 88 00 45 8A 00 00 00 C3 C3 C3 C3 82 00 55 FF FF FF 00 00 04 CC 6C 9C 0C C0 CC C0 C0 80 0B 00 51 70 11 33 33 33 CC CC CC C8 07 C0 51 70 40 40 40 00 33 36 36 3C 3C 06 CC 51 70 9C 14 CF 9B 67 67 28 45 00 22 22 67 22 67 C3 C3 0C 0C 00 00 00 00 0F 0F 0F 00 00 00 00 04 84 0C 0C 0C 48 C0 C0 C0 6D 28 48 80 08 00 51 70 11 05 33 51 70 22 9C 05 3C 51 70 C0 C0 40 11 9B 36 36 36 3C 09 CC 51 70 39 CF 9E 3C 3C 3C 9E 45 9B 8A 67 3C 3C 3C 39 C0 FC AC 0A 00 00 0F 0F 0F 00 00 00 0C CC CC 0C 0C 0C 0C C0 3C 36 04 C0 80 10 00 51 70 44 08 3C 51 70 C3 00 00 00 00 04 D6 45 33 33 36 6D 39 33 33 28 45 45 45 45 67 45 11 67 11 67 CF CF CF 33 11 0D 0A 09 00 51 70 04 0C 0C 48 0C 19 66 9C 00 48 C0 0F 00 51 70 41 C3 C3 82 44 05 3C 51 70 69 C3 C3 00 00 04 D6 FC FC FC FC 6D CF 67 67 67 67 33 00 45 CF 9E 9E 3C 3C 3C 9E 6D 33 45 00 54 0D 11 00 51 70 0C 0C C0 80 10 00 51 70 41 C3 C3 82 00 9C 3C 3C 3C 00 00 00 80 C0 C0 C0 C0 40 00 00 0F 0F C3 CF CF CF 00 00 54 FC ED CF CF 67 67 67 33 22 67 8A 04 0A 00 00 FF 00 AA AA 00 AA 55 FF 55 55 55 AA 55 AA 55 AA 1A 00 51 70 9C 28 18 00 51 70 0F 0F 0F 0C 5C FC FC 0D 0A 55 00 51 70 0C 16 C3 51 70 0C 16 00 51 70 14 3C 3C 05 00 51 70 07 CF 51 70 8A 00 04 56 FC A8 03 02 0A 00 51 70 04 86 49 C3 0C 49 C3 C3 86 0C C3 C3 C3 0C 49 C3 C3 86 0C C3 C3 0C C3 86 49 08 00 00 55 FF FF FF 00 00 00 00 0C CC 00 00 00 00 50 F0 F0 F0 A9 03 00 00 45 CF CF CF CF 65 CF CF CF CF 56 FC FC 33 67 FC A9 13 00 04 08 09 00 51 70 54 D6 E9 C3 FC E9 C3 C3 D6 FC C3 C3 C3 FC FC C3 C3 D6 FC C3 D6 FC E9 D6 E9 A8 41 C3 D7 FF FF FF 06 00 51 70 04 CC 00 88 05 00 51 70 45 CF CF CE 98 45 CF CF CF FC A8 56 56 FC A8 FC 33 CF 03 0C 13 67 8B A8 0A 00 51 70 05 16 0F 51 70 0A 00 00 00 00 05 00 82 0A 00 44 9C 3C 00 99 33 3C 44 08 00 00 00 CF CF CC 88 CF CF ED 03 FC FC 00 00 FC FC FC A8 01 13 CF 0C 0C 13 67 FC 33 CF 8A 15 00 51 70 41 C3 C3 C3 C3 00 00 00 04 48 84 48 90 8C 7C AD 0F 0F FC AD 44 28 04 0C 08 9C 00 04 00 66 8C CC CF 3C 03 FC 33 FC 00 54 FC FC 00 00 54 A9 A9 02 04 08 00 03 56 FC B9 67 3C 3C 45 8A 0C 00 51 70 04 0C 0C 0C 08 00 00 00 41 C3 C3 C3 C3 00 04 08 80 04 0C 0C CC 8D 0E 0D 4B 0A FC 00 00 99 66 CC 22 28 04 04 00 39 3C 22 CC 4C FC FC FC 06 00 54 FC FC 00 00 01 06 0C 00 01 03 54 00 3C 3C 45 A9 03 03 16 CF 08 00 51 70 0C 30 30 4C CC CC 0C CC 64 00 64 9C 08 00 51 70 C0 08 AD 0C 0C 64 CC CC CC 6C 28 00 00 00 14 88 9C 33 00 3C 14 33 33 99 56 FC FC 03 00 FC 00 54 CC 44 88 88 88 03 88 88 44 44 00 FC FC 00 00 03 03 0C 08 28 8A 05 00 51 70 10 30 30 24 CC 98 30 00 64 CC 4C 8C 0C 18 30 30 30 30 64 9C 00 FC 4B AD 5E 4B 4B 30 30 64 CC CC CC 68 C0 08 00 51 70 CC CC CC CC 89 09 FC 66 FC 66 DC EC 44 01 44 44 28 88 88 EC 44 44 DC A8 CC CC CC CC 8C 19 CC CC 00 00 00 00 10 30 30 30 30 4C 30 98 30 30 4C 64 98 98 CC 24 0C 08 00 00 00 40 05 54 0F 54 C3 D6 04 80 30 30 24 48 C0 00 00 00 FF BE 3C 3C 3C 6C 3C 14 28 00 54 FC FC 01 FC A8 00 3C 3C 00 56 FC 00 54 FC FC 00 00 01 02 00 00 04 09 56 A8 45 CF 00 00 00 00 30 24 0C 0C 0C 30 30 30 0C CC CC CC CC 98 08 00 51 70 80 9C 09 00 51 70 3C CC 9C 6C 6C CC CC 3C 2E 3C 9D 3F 3F 3C 3C FC FC 00 3C 3C 00 03 02 00 FC 54 A8 00 54 A8 00 00 00 04 0C 0C 08 CF CF 9A 20 CF 8A 00 00 00 05 1A 0C 0C 0C 0C 64 98 0C 4C 05 CC 51 70 98 06 00 51 70 44 44 05 0F 5E 0A 44 3C 3C 44 0C 4C 9C 66 9C 84 0C 04 0C 6C 37 3F 3F 3F 3F 3B 6C 3C 67 8E 09 02 00 FC 00 00 FC 00 00 00 01 02 03 0C 00 00 64 30 45 CF CF 20 CF CF 00 00 5E AD 0F 0E 64 CC 4C CC CC CC 9C 4C CC 20 6C 06 CC 51 70 9C 6C 00 28 0F AD 0A 9C 39 28 44 9C 9C 3C 33 36 14 66 3C 28 04 C0 44 3C 9C 33 33 CC 66 3C 6C 6D 8B 03 02 00 FC 00 00 FC 00 A9 00 02 00 CC CC 00 00 00 CF CF CF 30 45 CF 8A 00 00 05 0F 0F 18 64 CC CC 38 36 6C 9C 05 CC 51 70 88 14 3C 3C 14 00 05 AD 0F 4A 68 68 6C 2C 4C 9C 36 CC 0C 0C 9C 28 6C CC 05 00 51 70 04 0C 08 48 CC 3C 6C 9C CF FC A8 CF FC A8 DE A8 00 64 6C 00 00 00 00 CF CF CF CF 64 20 CF CF 33 33 00 FC 0F 0F 0F 18 CC CC 9C 34 00 00 00 54 0F 0A 05 0F 0A 00 33 28 00 00 00 40 C0 4C 9C 3C C0 84 80 80 80 11 33 3C 00 14 3C 28 07 3C 51 70 0C C4 39 14 98 24 CF FC FC 00 45 3C 3C 45 CA 00 0C 0C 48 04 84 9E 9C 88 CF CF CF 9B 33 33 33 00 05 0F AD AD 30 30 30 30 24 0C 18 0C E9 05 0F FC FC 0F 4B 0A 00 40 84 4C 9C 3C 68 84 08 05 80 51 70 2C 0C 0C 4C 28 36 28 9C 6C 8C 0C 19 99 3C 28 3C 9C 36 6C 6C 24 45 05 CF 51 70 00 04 40 0C 08 0C C5 05 CF 51 70 0F 0A 05 00 51 70 AD 0F 0F 0F 0F B8 3C 31 33 33 30 30 AD 82 A8 0F 0F 0F 05 0C 4C 9C 3C 68 0C 08 07 80 51 70 44 6C CC 9C 6C 00 00 6C 00 11 3C 39 3C 3C 36 44 CC 11 88 00 6C 3C 05 00 51 70 CF CF CF CE 8A 04 08 00 CE 00 05 0F 4B C3 C3 C3 07 00 51 70 AD 0F 0F 5E 0F 0F AD 1E 9C 9C 9C CC 0C 0C C0 9C 3C 3C 84 08 07 80 51 70 00 00 CF CF 36 22 9C 9C 3C 3C CC 9C 6C 3C 9C 3C 3C 3C 3C CC CC 39 88 00 41 C3 82 00 00 00 FC FC FC 00 0C 0C 48 C0 C0 80 00 00 41 C3 C3 C3 09 00 51 70 06 80 51 70 C0 C0 0C 0C 0C 0C CC 0C 0C 07 80 51 70 91 33 6C 6C CC CC CC 28 33 8A 00 04 01 14 0C 4C CC 6C 9C 3C 28 09 00 51 70 55 FF FF FF 00 00 00 1C 0C 2C 48 CC C4 C8 0C 00 51 70 C3 C3 C3 C3 80 0A C0 51 70 07 80 51 70 33 33 3C 6C 6C CC CC CC CC 28 67 9E 9E 3C 8A 44 9C 14 3C 28 00 CF 8A 00 00 00 C3 C3 C3 C3 82 07 00 51 70 04 CC 6C 9C 0C C0 6C C0 84 C0 08 0A 00 51 70 11 33 33 33 CC CC CC 0C 06 C0 51 70 80 80 80 80 91 33 33 39 3C 6C 06 CC 51 70 9C 00 3C 9B 9B 3C 00 28 9B 9B 11 11 11 8A C3 C3 0F 0F 0C 0C 00 00 0F 0F 0F 00 00 00 00 04 0C 84 0C 0C 48 84 C0 94 6D 28 48 80 08 00 51 70 11 05 33 51 70 22 9C 06 3C 51 70 C0 80 11 00 45 11 36 6C 6C 08 CC 51 70 39 CF 45 6D 6D 6D CF 8A 33 8A 9E 6D 6D 3C 3C 62 D4 AC 0A 00 00 0F 0F 0F 00 00 00 0C CC CC CC 8C 0C 0C 94 39 3C 04 C0 80 10 00 51 70 44 07 3C 51 70 69 C3 00 00 00 00 49 D6 A8 CF 9B 3C 9E 9B 22 9B 14 33 9B 33 9B 8A 8A 33 8A 11 CF 9B 9B 67 22 22 0D 0B 00 51 70 0C 0C 0C C0 0C 19 22 04 48 C0 0F 00 51 70 41 C3 C3 82 44 05 3C 51 70 C3 C2 40 40 C0 84 D6 FC FC FC FC CF 05 9B 51 70 33 22 45 CF 9E 6D 3C 3C 6D 6D CF 22 22 8A FC 0F 12 00 51 70 0C 48 80 10 00 51 70 41 C3 C3 82 00 9C 3C 3C 28 00 00 40 40 40 C0 C0 C0 80 80 80 00 05 4B C3 C3 D6 A8 54 FC FC ED CF CF 9B 9B 9B 9B 11 CF 00 AC 0A 00 00 AA 00 AA AA 00 AA 07 55 51 70 00 55 1B 00 51 70 9C 1A 00 51 70 05 0F 0F 0E 0C FC 0D 56 00 51 70 49 16 0C 51 70 86 09 00 51 70 04 07 00 51 70 50 F0 F0 F0 00 14 3C 3C 00 00 00 00 45 08 CF 51 70 A8 01 56 FC A8 01 02 00 41 C3 82 06 00 51 70 04 86 49 86 0C 0C C3 C3 0C 0C 0C 49 05 C3 51 70 0C 0C 49 86 0C 49 86 49 08 00 00 55 FF FF FF 00 00 00 00 4C 4C 00 00 00 00 50 F0 F0 F0 00 00 00 00 CF CF CF CF 30 20 CF CF CF 8B FC FC FC 33 67 FC 03 13 22 04 02 09 00 51 70 05 05 0F 00 00 00 05 0A 00 00 00 0F 00 00 00 05 0A 00 00 00 05 0F 0A 05 0A 0A 41 C3 D7 FF FF FF 00 0C 0C 0C 0C 08 00 4C 14 9C 05 00 51 70 45 CF CF CC CC 45 CF CF 8B FC A8 01 FC FC FC FC B9 CF 03 0C 19 67 DE B9 26 00 51 70 05 00 C3 87 00 00 CC 28 00 44 33 22 22 8C 00 00 00 CF CF CC 45 CF DE ED 56 FC FC 00 54 FC FC FC 02 01 02 CF 0C 09 13 76 FC 33 CF 8A 15 00 51 70 41 C3 C3 C3 C3 00 00 00 0C 80 04 C0 64 0C 7C FC 0F 5E FC AD 6C 28 04 0C 00 9C 00 0C 08 33 CC 4C CD 29 56 FC 33 FC 00 54 FC FC 00 00 54 FC 03 02 04 02 00 03 56 FC 33 9E 3C 3C 45 8A 0B 00 51 70 04 18 30 0C 0C 98 28 09 00 51 70 0C 80 04 0C 0C CC 98 0E 85 C3 C3 00 00 00 99 33 33 36 11 00 08 14 22 39 66 44 8C DC FC A9 09 00 54 FC FC 00 00 01 06 0C 00 01 03 00 14 3C 28 45 A9 03 01 16 45 08 00 51 70 18 30 24 CC 88 44 30 4C 64 08 64 CC 28 07 00 51 70 84 54 0F 86 18 30 CC CC CC 9C 9C 00 00 00 00 6C 39 28 3C 00 00 33 33 29 56 FC FC 06 00 FC 00 54 88 FC 88 88 88 03 88 88 44 44 00 FC FC 00 00 03 06 04 08 28 8A 05 00 51 70 30 30 30 24 CC 98 30 08 64 CC 0C 0C 18 05 30 51 70 64 9C 54 54 4B E9 0F 87 0F 92 30 30 CC CC 9C 60 C0 08 00 51 70 3C 3C 3C 3C 29 09 FC 36 FC 36 7C EC CC 00 6C 14 6C CC 88 CC 6C 88 7C 02 3C 3C 3C 3C 2C 19 3C 3C 00 00 00 00 10 30 30 30 30 4C 30 30 30 30 18 CC CC CC CC 98 20 08 00 00 00 40 00 0A AD 00 FC A8 C0 00 30 30 0C C0 C0 00 00 00 7D 06 3C 51 70 28 28 CF DE FC FC A9 FC A8 14 3C 28 01 FC FC 00 54 FC FC 00 00 01 02 00 08 04 03 56 00 CF CF 00 00 00 00 30 24 0C 0C 0C 18 30 30 0C CC CC CC CC 98 08 00 51 70 80 9C 00 0A 05 00 51 70 44 CC 36 6C 3C 66 CC CC CC 3C 2E 3C 3F 2E F3 3E 3C FC B9 44 3C 28 01 03 02 00 FC FC A8 00 54 A8 00 00 00 04 0C 0C 00 CF CF 9A 20 CF 8A 00 00 00 05 1A 0C 0C 0C 0C 64 98 0C 06 CC 51 70 98 06 00 51 70 14 14 05 0F 0F A8 44 3C 3C 44 8C CC 66 66 9C 0C 04 04 0C 6C 73 3F 3F 3F 3F 3B 9C 9C 6D 8E 09 02 00 FC 00 00 FC 00 00 00 01 03 06 0C 00 44 98 20 CF CF 9A 20 CF CF 00 00 FC 5E 0F 0E 64 CC CC CC 9C CC 9C 4C CC 98 14 06 CC 51 70 9C 3C 14 2D 0F AD 00 9C 36 44 8C 4C 3C 33 CC 36 14 39 9C 28 80 C0 00 6C 6C CC CC CC CC 36 9C 3C 03 03 02 8A FC 00 00 FC 54 03 00 00 44 CC 88 00 00 45 CF CF 9A 20 CF CF 8A 00 00 05 AD 0F 18 64 CC CC 98 36 3C 6C 6C 05 CC 51 70 88 00 00 36 00 AD AD 0F 94 94 94 9C 2C 4C 39 36 CC 0C 0C 9C 88 39 CC 28 00 00 00 00 04 08 08 48 CC 39 9C 9C CF FC A8 CF FC A8 DE 00 10 9C 68 C0 80 00 45 CF CF CF 9A CC 45 CF CF 33 33 00 AD 0F 0F 0F 18 30 30 3C 0C 0C 08 00 54 C3 00 FC E9 87 00 14 00 00 00 00 40 0C CC 3C 3C C0 48 40 40 00 00 36 3C 6C 00 3C 00 3C 6C 6C 3C 9C 9C 3C 48 9C 11 14 98 30 5C FC FC 00 9E 3C 28 CF CA 00 0C 48 48 04 04 6C 6C 28 CF CF CF 33 33 33 33 00 54 5E 5E 1A 30 30 24 0C 18 30 30 30 E9 05 5E 5E FC AD 4B 0A 00 84 0C 4C 3C 3C C0 0C 06 40 51 70 2C 0C 0C 4C 28 36 28 9C 6C 99 19 4C 4C 36 28 3C 9C 36 6C 6C 2C 45 06 CF 51 70 8E 40 0C 08 84 C5 CF CF CF CF 8F 0F 0A 06 00 51 70 05 0F 0F 5E 0F 30 38 30 30 30 25 AD 82 C3 05 0F 0F 05 0C 4C 3C 3C 68 0C 07 40 51 70 00 44 6C 9C 3C 6C 01 CC 3C 88 00 9C 3C 3C 3C 39 28 00 22 CC 00 14 28 06 00 51 70 45 CF CE 8A 00 40 45 88 00 05 0F 4B C3 C3 C3 07 00 51 70 AD 0F 0F AD 0F 0F 5E 4A 6C 6C 6C CC CC 0C 4C 3C 3C 68 0C 48 06 40 51 70 11 36 6C 0C 0C 36 9B 9C 3C 3C 6C CC CC 3C CC 6C 3C 3C 3C 6C CC CC 39 88 00 41 C3 82 55 FF FF FF 54 FC 00 0C 0C 0C C0 C0 C0 00 00 41 C3 C3 C3 09 00 51 70 06 40 51 70 C0 C0 84 05 0C 51 70 48 07 40 51 70 11 36 3C CC CC CC CC 39 11 45 33 66 28 14 09 46 6C 9C 9C 3C 88 09 00 51 70 55 FF FF FF 00 00 04 1C 0C 2C 48 CC C4 C8 80 0B 00 51 70 C3 C3 C3 C3 C6 40 09 C0 51 70 06 40 51 70 11 33 36 36 9C 05 CC 51 70 9C 67 CF 39 39 CF 45 9C 3C 6C 00 8A 3C CF 00 00 00 C3 C3 C3 C3 82 07 00 51 70 04 4C 0C 9C 0C C0 84 C0 C0 C0 2C 08 09 00 51 70 11 33 33 33 CC CC 8C 1C 3C 06 C0 51 70 40 40 40 33 33 36 36 3C 9C 06 CC 51 70 9C 00 00 3C 3C 00 00 14 45 67 67 22 22 28 C0 C0 0F 0F 0F 0E 00 00 0F 0F 0F 00 00 00 00 04 0C 0C 84 0C 48 C0 C0 94 9E 04 48 09 00 51 70 11 05 33 51 70 22 9C 07 3C 51 70 40 33 CF 8A 11 33 22 14 9B 9B 06 CC 51 70 6D 67 CF 9E 9E 9E 45 CF 33 8A 9E CF 9E 3C 9E 62 D4 0D 0A 00 00 0F 0F 0F 00 00 04 0C 4C CC CC CC CC 0C 94 39 28 04 C0 12 00 51 70 9C 06 3C 51 70 69 C3 00 00 00 00 49 FC FC 00 11 6D 3C 33 22 CF 22 3C 33 9B 9B 67 45 36 00 11 CF CF 67 11 22 8A 0D 0B 00 51 70 04 0C 0C 0C C0 0C 33 04 C0 80 0F 00 51 70 41 C3 C3 82 44 05 3C 51 70 C3 82 80 80 C0 84 5C FC FC FC FC 6D CF 67 67 33 67 22 00 67 CF 6D 05 9E 51 70 67 9B 00 8A 04 0A 12 00 51 70 04 48 16 00 51 70 44 3C 3C 28 00 00 00 80 C0 C0 C0 C0 40 40 00 00 00 00 0F 4B C3 0E 0C FC FC FC CF CF CF 67 67 67 CF 8A 00 AD 0A 00 00 AA 00 AA AA 00 AA 07 55 51 70 00 55 1B 00 51 70 9C 1C 00 51 70 0F 0F 0F 0C 0F 55 00 51 70 04 86 16 0C 51 70 49 08 08 00 51 70 04 88 06 00 51 70 50 F0 F0 F0 00 14 3C 3C 00 C0 C0 C0 09 CF 51 70 ED 8B FC FC A8 01 02 00 41 C3 82 06 00 51 70 01 83 43 83 03 03 C3 C3 03 03 03 43 05 C3 51 70 03 03 43 83 03 43 83 43 02 00 00 55 FF FF FF 00 00 00 00 04 8C 88 00 00 00 50 F0 F0 F0 00 00 00 45 CF CF CF 30 30 20 CF CF CF 09 56 A8 FC 33 CF FC 03 13 67 04 02 09 00 51 70 05 87 0F C3 C3 C3 87 4B C3 C3 C3 0F C3 C3 C3 87 4B C3 C3 C3 87 0F 4B 87 4B 0A 41 C3 D7 FF FF EE 06 CC 51 70 88 04 88 3C 05 00 51 70 CF CF CF CC 88 CF CF CF 56 FC A8 54 FC FC FC FC B9 CF 06 0C 19 67 DE B9 21 00 51 70 0C 00 00 00 00 05 41 C3 87 00 44 3C 28 00 44 3C 39 22 8C 88 00 00 CF CE CC 45 CF FC A8 56 FC FC 00 54 FC FC FC A8 01 08 00 0C 06 13 76 B9 67 CF 8A 15 00 51 70 41 C3 C3 C3 C3 00 00 00 48 00 40 C0 64 1C 5C FC 0F FC FC AD 44 28 04 04 00 9C 00 0C 08 22 CC 8C CC 03 FC FC 33 FC 00 54 FC FC 00 00 54 A9 03 08 04 02 00 03 FC FC 33 3C 3C 3C 47 8A 0A 00 51 70 04 0C 30 30 24 4C CC 9C 09 00 51 70 0C C0 04 0C 4C CC CC 49 84 4B 82 00 00 14 44 33 00 3C 14 00 00 14 00 39 66 88 CC 5C FC A9 09 00 54 FC FC 00 00 03 0C 06 00 03 03 00 3C 3C 00 45 03 02 01 14 45 8A 06 00 51 70 04 18 30 24 CC 00 44 98 4C 98 08 10 CC 28 06 00 51 70 54 0C 54 0F 4B 30 30 CC CC CC 6C 3C 00 00 00 00 3C 3C 3C 00 28 00 33 36 03 FC 54 FC 09 00 FC 00 54 88 FC 88 88 88 03 88 00 44 44 00 FC A8 00 00 03 02 04 08 28 CF 05 00 51 70 30 30 30 24 CC 98 30 08 10 CC 0C 18 30 CC CC 30 30 20 00 44 2D 54 0F D6 C3 87 FC 92 30 30 CC CC CC 68 C0 00 00 FF FF AA 00 00 00 3C 3C 3C 3C 2C 03 FC 36 FC 36 7C A9 88 14 6C 14 6C CC 88 CC 6C 88 7C 02 3C 3C 3C 3C 2C 19 3C 3C 00 00 00 00 10 30 30 30 30 24 98 30 30 30 0C 4C CC CC CC 88 04 80 00 00 00 00 80 87 54 0A A8 40 80 00 18 24 0C C0 80 00 00 00 BE 3C 3D 3F 3C 3C 3C 9C 00 CF DE FC FC A9 FC 00 3C 3C 00 03 FC FC 00 54 FC A8 00 00 01 02 04 08 04 03 A8 45 CF CF 00 00 00 00 30 24 0C 0C 0C 18 98 30 0C CC CC CC CC 98 07 00 51 70 40 00 9C 00 0A 05 00 51 70 9C 3C 99 6C 66 9C CC 3C CC 39 2E 3C 3F 59 3F 3E 3C 7C 33 9C 9C 00 01 03 A8 00 FC FC A8 00 54 02 00 01 00 06 0C 08 45 65 CF 9A 20 CF 8A 00 00 00 0F 1A 0C 0C 0C 18 64 9C 0C 07 CC 51 70 20 05 00 51 70 3C 14 05 0F 0A 00 44 9C 39 28 CC 9C 6C 66 CC 0C 00 04 0C 6C 33 B7 3F 3F 3F 3B 6C 3C 6D 8E 03 02 01 FC 00 00 FC 00 00 00 01 03 06 08 00 CC 98 00 CF CF 9A 20 CF CF 00 00 0F FC 0F 0E 64 CC CC CC 6C 6C CC 2C CC 98 14 06 CC 51 70 9C 28 14 0F 0F 5E 00 9C 36 04 4C 1C 9C 66 CC 3C 14 36 9C 00 00 00 00 3C CC CC CC CC 99 3C 6C 3C 03 03 02 8A FC 00 00 FC FC 03 00 00 CC CC 00 00 00 45 CF CF 9A 20 CF CF 00 00 00 5E 5E 5E 18 64 CC CC 98 33 3C 9C CC 6C 06 CC 51 70 9C 36 00 AD 5E 0F 00 68 6C 9C 3C 9C 22 36 CC 0C 0C 6C 11 CC CC 28 00 00 00 00 04 08 08 48 9C 11 3C CD CF FC A8 CF FC A8 8A 45 34 3C 84 0C C0 45 CF CF CF CF CE 88 CF CF CF 33 33 00 05 0F 0F 0F 18 30 30 2C 0C 0C 0C 00 54 82 54 03 56 4B 0A 28 00 00 00 00 84 0C 9C 3C 68 84 08 80 80 80 11 3C 3C 3C 88 00 14 3C CC CC CC 6C 39 3C 68 9C 33 36 98 30 5C FC A8 45 3C 3C 45 CF 8A 04 48 08 40 84 04 3C 3C 45 CF CF CF 33 33 33 33 00 05 AD AD B8 30 38 06 30 51 70 E9 05 0F FC AD AD 0A 0A 40 0C 0C 9C 3C 3C 84 08 06 80 51 70 2C 0C 0C 1C 28 33 3C 44 6C 8C 0C 26 99 9C 00 6C 3C 36 3C 6C 2C 00 07 CF 51 70 48 84 80 04 80 CF CF CF CF 0F 0F 0A 07 00 51 70 0F 0F AD 0F 1A 30 30 30 0F 0F 5E 4B A8 00 0F 05 05 0C CC 3C 3C 84 0C 07 80 51 70 00 00 9C 3C 6C 88 09 C4 9C 9C CC 44 36 39 39 3C 11 33 36 66 00 14 28 08 00 51 70 44 8A 40 80 45 88 00 00 00 41 C3 C3 C3 09 00 51 70 0F AD 0F 0F 5E 04 84 94 9C CC CC 8C 4C 3C 3C 84 0C 07 80 51 70 11 3C 8C 0C 1C 36 22 9C 3C 3C 0C C4 CC 3C 3C 3C 9C 3C 3C CC CC 9C 39 88 00 41 C3 82 55 FF FF FF 54 FC 00 0C 0C 0C C0 C0 C0 0D 00 51 70 C3 C3 05 80 51 70 C0 C0 C0 C0 84 0C 0C 0C 0C 08 07 80 51 70 33 3C 6C 6C CC CC CC 28 8A 00 00 44 3C 3C 0C 09 9C 9C 9C 3C 88 09 00 51 70 55 FF FF FF 00 00 04 4C 2C 6C 48 6C C8 CC 80 0B 00 51 70 C3 C3 C3 C3 C6 C8 09 C0 51 70 06 80 51 70 91 33 39 3C 6C 05 CC 51 70 9C 67 CF 67 67 67 8A 9C 3C 6C 00 14 6D CF 00 00 00 C3 C3 C3 C3 82 07 00 51 70 04 4C 0C 8C 0C C0 C0 C0 48 C0 6D 0C 08 08 00 51 70 11 33 33 33 66 CC 8C 3C 3C 68 C0 C0 C0 C0 80 80 80 91 33 33 39 3C 6C 6C 06 CC 51 70 9C 00 00 00 00 11 33 22 3C 9B 8A 9B 3C 40 C0 C0 D4 FC 0F 0E 00 00 0F 0F 0F 00 00 00 00 0C 0C 0C 0C 84 C0 48 C0 3C 9E 04 C0 09 00 51 70 11 05 33 51 70 22 9C 07 3C 51 70 28 33 CF 00 11 33 22 14 67 33 CF CF CF CE CC CC 33 9B 9B 28 6D 8A 8A 8A 9B 8A 36 00 45 3C 6D 39 D4 0D 08 00 51 70 04 84 19 05 CC 51 70 3C 36 28 48 C0 12 00 51 70 9C 06 3C 51 70 69 C3 00 00 00 04 C3 FC FC E9 96 9E 9E 9B CF 67 33 00 6D 6D 33 9B 9E 8A 14 45 CF 33 9B 22 22 8A 0F 0C 00 51 70 04 0C 0C 0C 84 0C 0C C0 80 0F 00 51 70 41 C3 C3 82 44 05 3C 51 70 C3 C2 40 40 C0 85 0E 5C FC FC FC BC 9B 9B 9B 9B 33 22 11 45 CF CF 6D 6D 6D 39 9B 9B 22 11 8A 04 0A 13 00 51 70 40
73B0 : 16 00 51 70 44 3C 3C 28 00 00 40 40 C0 C0 C0 C0
73C0 : 80 80 80 00 00 00 00 05 0F 0F 0F 0C 5C FC FC CF
73D0 : 9B 9B 9B CF 8A 00 FC 0D 00 00 00 AA AA FF 00 AA
73E0 : AA 55 55 00 AA 55 55 55 00 55 AA 1A 00 51 70 9C
73F0 : 1D 00 51 70 05 0F 0F 0A 50 00 51 70

So here:
from FFFF downto FFB0, 80 (#50) bytes "00"
FFAF "0A"
FFAE "0F"
FFAD "0F"
FFAC "05"
from FFAB downto FF8F, 29 (#1D) bytes "00"
FF8E "9C"
from FF8D downto FF74, 26 (#1A) bytes "00"
FF73 "AA"
FF72 "55"
FF71 "00"
FF70 downto FF6E 3 times "55"
etc.

After the full algo, return from the CALL #4012, we have in memory screen C000 to FFFF:
	     0  1  2  3  4  5  6  7  8  9  A  B  C  D  E  F
C000 : 	00 00 00 00 00 00 00 00 00 00 00 00 00 00 00 00
C010 :	00 00 00 00 00 00 00 00 00 00 00 00 00 00 00 00
		00 00 00 00 00 00 00 00 00 00 00 00 00 00 00 00
		00 00 00 00 14 3C 3C 00 00 00 00 00 55 AA 00 00
		00 00 00 00 00 00 00 54 FC 00 00 00 00 00 00 00
		00 00 00 00 00 04 86 0C 49 C3 C3 0C 0C C3 C3 86
		0C 49 C3 C3 0C 0C C3 C3 49 86 C3 C3 0C 49 08 00
		00 00 00 00 00 00 00 00 4C 00 00 00 00 00 00 50
		F0 F0 F0 00 14 3C 3C 00 C0 C0 CF CF CF CF CF CF
		CF CF CF DE B9 8B FC FC A8 01 03 00 41 C3 82 00 00 00 00 00 00 01 83 43 83 03 03 C3 C3 03 03 03 43 C3 C3 C3 C3 C3 03 03 43 83 03 43 83 43 02 00 00 55 FF FF FF 00 00 00 00 04 8C 88 00 00 00 50 F0 F0 F0 00 00 00 45 CF CF 9A 30 30 20 CF ED 8E 03 FC A8 FC 33 CF FC 03 13 67 01 02 00 00 00 00 00 00 00 00 00 05 05 0F 0A 00 00 0F 0F 00 00 05 0F 0A 00 00 0F 0F 00 00 0A 05 0F 0A 05 0A 0A 41 C3 D7 FF AE 0C 0C 0C 0C 0C 0C 0C 0C 08 88 28 04 0C 0C 0C 00 CF CF CE CC 45 CF CF 8B 56 FC A8 54 FC FC FC FC 13 CF 06 0C 19 67 FC 33 00 00 00 00 00 00 00 00 00 00 00 00 00 00 00 00 00 00 00 00 00 00 00 00 00 00 00 00 00 00 00 00 40 C0 08 00 00 00 AD 41 C3 C3 0A CC 3C 00 00 00 9C 3C 28 44 4C 00 45 CF CE 88 CF 8B FC A8 54 FC FC 54 54 FC FC FC 02 01 08 00 0C 09 13 FC B9 67 CF CF 00 00 00 00 00 00 00 00 00 00 00 00 00 00 00 00 00 00 00 00 00 41 C3 C3 C3 C3 00 00 04 48 00 68 90 8C 1C 5C AD 05 FC FC AD 44 28 04 04 00 9C 00 0C 08 33 44 8C CC 03 FC FC 22 FC 00 54 FC FC 00 00 54 56 06 00 04 08 00 03 FC B9 36 3C 28 29 47 8A 00 00 00 00 00 00 00 00 00 00 0C 0C 0C 30 0C 4C 88 CC 28 00 00 00 00 00 00 00 00 04 48 00 0C 64 64 8C 0D 86 1C 00 00 00 00 44 3C 3C 14 36 28 00 39 14 36 66 CD 54 5C FC 02 56 00 54 FC FC 00 00 03 0C 06 00 03 02 14 3C 28 00 00 03 00 8A 1C 45 8A 00 00 00 00 00 00 10 30 30 18 CC 44 CC CC 0C 98 00 10 CC 28 0C CC 28 00 00 00 54 0C AD 5E E9 30 30 64 CC CC 9C 9C 68 00 00 14 44 9C 00 28 00 00 33 36 03 A8 54 A9 09 00 FC 00 54 88 FC 88 88 88 02 CC 00 44 88 00 FC A8 00 00 03 00 8E 08 28 CF 00 00 00 00 00 30 30 30 24 CC 98 30 00 10 CC 18 30 CC 0C 0C 98 30 00 00 00 2D 54 0F C3 C3 5E FC C3 30 30 CC CC CC 0C C0 00 00 FF FF AA 00 00 00 3C 3C 3C 3C 2C 56 FC 36 FC 36 FC 03 00 3C 28 14 28 00 00 00 00 00 7C 02 3C 3C 3C 3C 2C 19 3C 3C 00 00 00 00 10 30 30 30 30 24 98 30 30 24 0C 0C CC CC 98 00 48 00 00 00 00 00 80 C3 82 FC 00 00 00 00 0C 0C 48 C0 80 00 00 14 3C 2C 2E 0C 3E 3C 3C 3C 28 6D DE FC FC A9 A8 14 3C 28 01 56 FC FC 00 54 FC 00 00 00 01 02 04 08 01 56 00 CF CF CF 00 00 00 00 30 0C 0C 0C 0C 18 CC 8C 4C CC CC CC CC 98 00 00 00 00 00 00 00 40 00 9C 05 0A 00 00 00 00 00 CC 9C 39 3C 39 6C 3C C0 C4 99 7B 37 2E B7 0C 3F 3C 3C 66 6C 28 04 01 03 00 00 FC FC 00 00 54 02 00 06 00 0C 0C 00 10 20 CF 30 45 CF 8A 00 00 00 0F 1A 0C 30 0C 18 CC 9C 0C CC CC 0C CC CC CC CC 20 00 00 00 00 00 9C 14 0F 0F 00 CC 44 9C 33 28 CC 3C 36 66 3C 08 00 04 0C 6C 33 B7 3F 3F 3F 36 9C 9C 6D 8B 03 02 56 FC 00 00 FC 00 00 00 01 03 0C 00 44 CC 20 00 CF CF 9A 20 CF CF 00 00 05 0F FC 0E 64 CC CC CC 34 10 CC 2C CC 98 14 CC CC CC CC CC CC 3C 28 28 0F 0F 5E 00 14 28 0C 0C CC 39 CC CC 99 88 3C 9C 00 00 00 00 14 6C 9C 3C CC CC 3C 9C 9C 03 03 A8 CF FC 00 00 FC FC 03 00 44 CC 88 00 00 00 CF CF CF 9A 20 CF CF 00 00 00 FC AD AD 18 64 CC 6C 98 33 3C 3C 9C 3C 9C CC CC CC CC CC 39 28 00 AD 5E 0F 00 00 CC 3C 3C C0 84 11 6C 8C 4C 3C 14 66 CC 28 00 00 00 00 04 00 00 48 9C 39 6C 6D CF FC A8 DE FC A8 8A 9E 3C 68 00 00 00 C5 CF CF CF CF CC 88 CF CF 9B 33 33 00 05 0F 0F 0F 30 30 30 0C 0C 0C 0C 08 AD 82 5E 03 56 E9 87 00 00 00 00 00 84 4C 9C 3C C0 0C 40 40 40 40 36 3C 9C 9C 28 28 14 3C CC CC CC CC 9C 3C 68 99 6C 36 98 30 5C FC 00 CF 3C 3C 6D CA 0C 04 80 49 4A 84 04 3C 28 CF CF CF 8A 00 00 00 00 00 54 5E 5E B8 38 34 30 30 30 30 30 30 AD 54 0F 5E 0F 0F 0A 4A 84 0C 4C 9C 3C 68 0C 40 40 40 40 40 40 40 0C 0C 0C 9C 28 11 3C 44 3C CC 26 0C CC 36 28 6C 3C 39 3C 3C 24 00 45 CF CF CF CF CF CF 4D 84 80 84 94 45 CF CF 8F 0F 0F 0A 00 00 00 00 00 00 00 05 0F AD 0F 0F AD 0F AD 0F 0F 7C 5E 00 54 00 A8 0E 4C 9C 3C 68 0C 48 40 40 40 40 40 40 00 00 00 44 CC 88 04 42 CC CC 3C 3C 28 9C 39 3C 3C 11 33 14 66 00 14 28 00 00 00 00 00 00 00 00 44 CD 00 45 CE 80 00 00 00 41 C3 C3 C3 00 00 00 00 00 00 00 00 40 05 AD 0A 00 54 08 48 48 6C CC CC CC 1C 3C 68 0C 48 40 40 40 40 40 40 40 36 3C 9C CC 9C 11 39 9C 3C 3C 0C 48 CC 3C 3C 3C 6C 3C CC 6C CC 9C 66 00 00 41 C3 82 55 FF FF FF 54 FC 00 0C 0C 0C C0 C0 C0 80 00 00 00 00 00 00 00 00 00 00 00 00 C3 C3 40 40 40 40 40 C0 C0 C0 C0 C0 0C 0C 0C 0C 40 40 40 40 40 40 40 11 36 36 9C CC CC CC CC 28 8A CF 6D 00 3C 2C 0C 03 CC 9C 9C 6C 00 00 00 00 00 00 00 00 00 00 55 FF FF FF 00 00 04 4C 2C 9C 48 C4 C8 CC C0 00 00 00 00 00 00 00 00 00 00 00 C3 C3 C3 C3 C6 CC C0 C0 C0 C0 C0 C0 C0 C0 C0 40 40 40 40 40 40 33 36 36 3C 9C CC CC CC CC CC 9C 67 9B 9B 9B 9B 00 44 3C 88 14 3C CF 67 00 00 00 C3 C3 C3 C3 82 00 00 00 00 00 00 00 04 4C 0C 8C 0C C0 C0 C0 C0 C0 6D 04 08 00 00 00 00 00 00 00 00 11 33 33 33 66 CC 8C 3C 3C 3C 68 C0 C0 C0 C0 40 40 11 33 33 36 36 9C CC CC CC CC CC CC CC CC 28 33 CF 8A 11 33 45 00 6D 6D 6D 00 C0 C0 C0 D4 FC FC 0D 00 00 0F 0F 0F 00 00 00 00 0C 0C 0C 0C 0C 48 C0 C0 6D 3C 04 C0 00 00 00 00 00 00 00 00 00 11 33 33 33 33 33 22 44 3C 3C 3C 3C 3C 3C 3C 3C 39 00 00 11 33 22 14 33 CF 67 67 67 33 6D 39 67 67 67 67 67 CF 67 67 33 8A 36 28 45 3C CF 33 D4 0D 00 00 00 00 00 00 00 00 04 48 0C 33 CC CC CC CC 3C 36 00 48 C0 00 00 00 00 00 00 00 00 00 00 00 00 00 00 00 00 00 00 9C 3C 3C 3C 3C 3C 3C C3 C3 00 00 00 04 D6 FC FC FC 6D 6D 6D 3C 3C 6D 9B 22 00 00 6D 6D 00 00 00 6D CF 9B 33 33 45 04 0A 00 00 00 00 00 00 00 00 00 00 00 00 00 0C 0C 0C 48 84 48 C0 80 00 00 00 00 00 00 00 00 00 00 00 00 00 00 00 41 C3 C3 82 44 3C 3C 3C 3C 28 00 00 80 80 C0 85 0F 0E 5C FC FC ED CF 67 33 67 22 11 33 45 CF CF CF 9E 9E CF 67 67 33 22 8A 05 0A 00 00 00 00 00 00 00 00 00 00 00 00 00 00 00 00 00 00 00 00 00 00 00 00 00 00 00 00 00 00 00 00 00 00 00 00 00 00 00 00 00 00 44 3C 3C 00 00 00 00 80 C0 C0 C0 C0 C0 40 00 00 00 00 00 00 00 0F 0F 0F 0E 0C FC CF CF CF CF 8A 00 54 FC 0D 00 00 00 00 00 00 00 00 00 00 00 00 00 00 00 00 00 00 00 00 00 00 00 00 00 00 00 00 00 00 00 00 00 00 00 00 00 00 00 00 00 00 00 00 00 00 00 00 00 00 00 00 00 00 00 00 00 00 00 00 00 00 00 00 00 00 00 00 00 00 00 00 00 00 00 00 00 00 00 00 00 00 00 00 00 00 00 00 00 00 00 00 00 00 00 00 00 00 00 00 00 00 00 00 00 00 00 00 00 00 00 00 00 00 00 00 00 00 00 00 00 00 00 00 00 00 00 00 00 00 00 14 3C 3C 00 00 00 00 00 55 AA 00 00 00 00 00 00 00 00 00 56 FC A8 00 00 00 00 00 00 00 00 00 00 00 04 86 0C C3 C3 C3 0C 0C C3 C3 86 0C 49 C3 C3 0C 0C C3 C3 49 86 C3 C3 0C 49 08 00 00 00 00 00 00 00 00 00 4C 88 00 00 00 00 00 50 F0 F0 F0 A9 03 3C 3C 00 C0 C5 CF CF CF CF CF CF CF CF CF FC B9 CF FC FC 02 00 06 00 41 C3 82 00 00 00 00 00 00 54 D6 E9 D6 FC FC C3 C3 FC FC FC E9 C3 C3 C3 C3 C3 FC FC E9 D6 FC E9 D6 E9 A8 00 00 55 FF FF FF 00 00 00 00 00 4C 4C 00 00 00 50 F0 F0 F0 00 00 00 CF CF CF 30 30 20 00 CF ED 09 56 FC A8 FC 33 CF A9 03 13 67 8B 02 00 00 00 00 00 00 00 00 00 05 05 0F 0A 00 00 0F 0F 00 00 05 0F 0A 00 00 0F 0F 00 00 0A 05 0F 0A 05 0A 0A 41 C3 C3 00 00 CC CC CC CC CC CC CC CC CC 14 04 0C 0C 0C 0C 0C 4D CF CC 88 CF CF CF 09 FC A8 A8 54 FC FC FC 54 13 CF 06 0C 19 67 FC 33 8A 00 00 00 00 00 00 00 00 00 00 00 00 00 00 00 00 00 00 00 00 00 00 00 00 00 00 00 00 00 00 00 04 C0 08 00 0C 00 AD 41 C3 0F 0A 44 9C 00 04 08 9C 3C 3C 44 8C 88 45 CF CE 88 CF A9 FC 00 54 FC FC FC 54 54 FC A9 02 01 08 00 0C 03 13 FC B9 67 CF CF 00 00 00 00 00 00 00 00 00 00 00 00 00 00 00 00 00 00 00 00 00 41 C3 C3 C3 C3 00 00 04 80 00 38 64 8C 0D 5C AD 54 5E FC 0F 44 28 00 08 00 88 04 0C 08 33 44 CC 4C 89 FC FC 00 FC 00 54 FC FC 00 00 54 A9 06 00 04 02 01 56 FC 11 3C 3C 00 03 47 CF 00 00 00 00 00 00 00 00 00 04 0C 18 30 18 24 CC 44 44 9C 00 00 00 00 00 00 00 00 04 48 80 10 30 CC 0C 0D 4B 6C 28 00 00 00 44 3C 28 00 39 3C 14 22 14 33 CC 67 DE FC FC 00 56 00 54 FC FC 00 A8 06 09 09 02 03 00 3C 3C 00 00 00 03 45 8B 1C 45 8A 00 00 00 00 00 00 18 30 30 4C 88 CC CC CC 24 CC 20 10 CC 0C 0C 64 34 28 00 00 54 03 AD 5E FC 92 30 64 CC CC CC 6C 68 00 00 00 00 28 28 00 00 00 33 36 56 00 DE AC 56 00 FC 00 54 88 FC 88 CC 88 00 CC 00 44 CC 00 FC A8 00 00 02 45 8E 08 28 CF 00 00 00 00 00 30 30 30 24 CC 98 30 20 00 24 4C 64 0C 0C 0C 4C 30 00 00 00 2D 0A AD D6 87 D6 FC 4B 30 30 64 CC CC 48 C0 00 00 FF FF AA 00 00 00 3C 3C 3C 3C 29 56 FC 36 FC 36 FC 03 14 3C 3C 3C 3C FC A8 3C 3C 3C 29 02 3C 3C 3C 3C 2C 13 3C 3C 00 00 00 00 10 30 24 0C 30 24 30 30 30 0C 4C CC 4C CC 98 04 48 00 00 00 00 00 80 C3 C3 00 00 00 00 00 0C 0C C0 C0 00 00 00 6C 6C 3C 1D 3F 1C 9C 3C 3C 3C 45 DE FC FC A9 00 3C 3C 00 01 56 A8 A8 00 54 A8 00 00 00 01 08 04 08 01 A8 45 20 CF CF 00 00 00 00 30 0C 0C 0C 0C 18 CC 8C 4C CC CC CC CC CC 20 00 00 00 00 00 00 40 00 9C 05 0F 00 00 44 88 44 8C 1C 6C 33 6C 9C C0 0C 1C 99 7B 19 2E B7 59 B7 3C 39 9C CC 00 09 01 03 00 00 FC A8 00 00 54 02 00 06 00 0C 08 00 64 20 CF 30 45 CF 8A 00 00 05 0F 0F 0C 30 24 64 98 34 0C CC 8C 00 CC CC CC CC CC 00 00 00 00 44 28 28 0F 0F 44 36 99 99 3C 00 11 39 88 14 36 28 00 0C 0C 6C 33 73 B7 3F 7B 66 6C 6C 3C CF 03 03 FC FC 00 00 FC 00 54 00 03 03 08 00 CC CC 00 45 CF CF 9A 20 CF CF 00 00 05 0F 0F B8 64 CC CC 98 10 14 CC CC CC CC 20 6C CC CC CC CC CC 3C 28 00 0F 0F 5E 00 14 44 0C CC 9C 6C CC 0C 9C 28 39 9C 00 00 00 00 14 CC 2C 0C 6C 9C 36 6C 3C 47 03 A8 CF FC 00 54 FC A9 02 00 CC CC 00 00 00 45 CF CF CF 30 8A CF CF 00 00 00 FC 5E 0F 18 64 CC 9C 98 33 36 3C 3C 11 3C CC 3C CC CC 9C 39 2D 54 0F 5E 0A 00 00 9C 3C 68 C0 08 91 6C CC 9C 9C 14 CC 9C 00 00 00 00 00 2C 00 04 48 9C 3C 6C 6D CF FC A8 DE FC A8 CF 3C 3C 00 80 04 00 C5 CF CF CF CE CC 45 CF CF 9B 33 33 00 05 0F 0F 0F 30 30 24 0C 0C 0C 0C 0C AD 82 5E A9 56 AD 87 00 00 00 00 40 84 CC 3C 3C C0 08 80 80 80 80 36 3C 4C 9C 28 3C 44 3C CC CC 99 CC 66 39 68 3C 6C 14 98 38 5C A8 45 CF 14 3C 3C 68 0C 84 41 49 C2 C0 18 3C CF CF CF CF 00 00 00 00 00 00 54 AD FC 1A 38 34 38 30 30 30 30 38 AD 54 05 0F 0F 0F 0A 0E 0C 0C 4C 3C 3C C0 0C 80 80 80 80 80 80 C4 8C 0C 0C 9C 6C 11 3C 28 9C 66 CC 26 36 3C 28 CC 3C 39 3C 6C 2C 00 00 CF CF CF CF CF CF CF 8E 08 04 C5 28 CF CF 0F 4B C3 C3 C3 00 00 00 00 00 00 05 0F AD 0F 0F AD 0F AD 0F 1E 1C A8 00 00 FC 54 0E CC 3C 3C C0 0C 80 80 80 80 80 80 80 00 00 00 00 28 44 88 C4 9C 9C 3C 3C 3C 44 3C 3C 28 33 22 3C 66 00 14 00 00 00 00 00 00 00 00 00 00 CC CF CE C8 C0 00 00 00 41 C3 C3 C3 00 00 00 00 00 00 00 00 00 80 AD 00 80 00 04 04 84 94 CC CC CC 9C 3C 68 0C 08 80 80 80 80 80 80 80 36 6C 6C CC 9C 22 28 9C 3C 2C 0C 42 CC 9C 3C 3C 9C CC 3C 6C CC 3C 66 00 00 41 C3 82 55 FF FF FF 54 FC 00 0C 0C 0C C0 C0 C8 80 00 00 00 00 00 00 00 00 00 00 00 00 C3 C3 80 80 80 80 C0 C0 C0 C0 C0 C0 C0 0C 0C 08 80 80 80 80 80 80 80 91 33 3C 6C CC CC CC CC 6D 45 9E 8A 45 9C 2C 0C 42 9C 9C 9C 6C 00 00 00 00 00 00 00 00 00 00 55 FF FF FF 00 00 04 CC 6C 9C 48 C4 C8 C4 C0 00 00 00 00 00 00 00 00 00 00 00 C3 C3 C3 C3 C6 CC CC C0 C0 C0 C0 C0 C0 C0 C0 80 80 80 80 80 80 33 33 3C 6C 6C CC CC CC CC CC 9C 67 CF 67 67 33 22 00 CC 00 28 6D 39 45 00 00 00 00 00 00 00 00 00 00 00 00 00 00 00 04 0C 0C 8C 0C C0 C0 84 C0 94 3C 04 80 00 00 00 00 00 00 00 00 11 33 33 33 33 66 8C 3C 3C 3C 3C C0 C0 C0 C0 80 80 33 33 33 39 3C 6C 6C CC CC CC CC CC CC CC 39 67 CF 6D 22 45 CF 9B 00 00 00 11 CF C0 C0 D4 FC FC 0D 00 00 0F 0F 0F 00 00 00 04 8C 0C 0C 0C 0C 0C C0 94 6D 28 48 C0 00 00 00 00 00 00 00 00 00 00 00 00 00 00 00 22 44 3C 3C 3C 3C 3C 3C 3C 3C 28 00 00 11 33 22 4D 9B 33 9B 9B 9B 3C CF 39 33 9B 9B 9B 11 9B 9B 8A 9B 8A 36 6D 9E 6D 6D 33 AC 0F 00 00 00 00 00 00 00 00 04 0C C0 0C 66 CC CC CC 39 3C 04 C0 80 00 00 00 00 00 00 00 00 00 00 00 00 00 00 00 00 00 00 9C 3C 3C 3C 3C 3C 3C C3 C3 00 00 00 49 D6 FC FC FC 3C 9E 9E 9E 3C CF 9B 33 33 CF 00 00 00 00 00 45 CF CF 67 8A 8A 04 0A 00 00 00 00 00 00 00 00 00 00 00 00 00 00 0C 0C 0C 48 C0 C0 00 00 00 00 00 00 00 00 00 00 00 00 00 00 00 00 41 C3 C3 82 00 9C 3C 3C 3C 28 00 40 40 40 C0 80 05 0F 0E 0C FC BC 9B 9B 9B 9B 11 33 67 45 CF CF CF CF CF CF 9B 9B 33 45 00 0D 00 00 FF 00 FF 00 55 FF 55 55 00 AA 55 AA 55 AA 55 AA 00 00 00 00 00 00 00 00 00 00 00 00 00 00 00 00 00 00 00 00 00 00 00 00 00 44 3C 3C 00 00 00 40 40 C0 C0 C0 C0 80 80 80 00 00 00 00 00 00 00 05 0F 0F 0F 0C A8 00 00 00 00 54 FC FC 0F 00 00 00 00 00 00 00 00 00 00 00 00 00 00 00 00 00 00 00 00 00 00 00 00 00 00 00 00 00 00 00 00 00 00 00 00 00 00 00 00 00 00 00 00 00 00 00 00 00 00 00 00 00 00 00 00 00 00 00 00 00 00 00 00 00 00 00 00 00 00 00 00 00 00 00 00 00 00 00 00 00 00 00 00 00 00 00 00 00 00 00 00 00 00 00 00 00 00 00 00 00 00 00 00 00 00 00 00 00 00 00 00 00 00 00 00 00 00 00 00 00 00 00 00 00 00 00 00 00 00 00 14 3C 3C 00 00 00 FF AA 00 00 00 00 00 00 00 00 00 00 01 FC FC A9 00 00 00 00 00 00 00 00 00 00 00 04 86 0C C3 C3 C3 86 49 C3 C3 C3 0C C3 C3 C3 86 49 C3 C3 C3 C3 C3 C3 86 49 08 00 00 00 00 00 00 00 00 00 04 4C 00 00 00 00 00 50 F0 F0 F0 A9 03 00 00 00 C0 CF CF CF CF CF CF CF CF CF DE FC B9 67 FC FC 02 00 0C 00 41 C3 82 00 00 00 00 00 00 54 D6 E9 D6 FC FC C3 C3 FC FC FC E9 D6 FC FC FC C3 FC FC E9 D6 FC E9 D6 E9 A8 00 00 55 FF FF FF 00 00 00 00 00 4C 8C 00 00 00 50 F0 F0 F0 00 00 45 CF CF 9A 30 20 45 CF CF ED 09 A9 FC A8 FC 33 CF A9 03 19 67 8B 02 00 00 00 00 00 00 00 00 00 05 05 0F 0F 0F 0F 0F 0F 0F 0F 0F 0F 0F 0F 0F 0F 0F 0F 0F 0F 0F 0F 0F 0F 0A 0A 41 C3 C3 00 00 00 CC CC CC CC CC CC 88 00 3C 14 0C 0C 0C 0C 0C 0C 0C CC 88 CF CF 8E 56 FC 00 A8 54 FC FC A8 01 B9 CF 0C 0C 19 67 FC 33 8A 00 00 00 00 00 00 00 00 00 00 00 00 00 00 00 00 00 00 00 00 00 00 00 00 00 00 00 00 00 00 00 0C 48 84 10 8C 28 AD 41 0F 0F 0F 44 3C 00 0C 08 9C 38 3C 00 8C CC 45 CF CC 88 DE A9 FC 00 54 FC FC FC 00 54 FC 56 02 01 08 00 09 03 56 FC 33 CF CF CF 00 00 00 00 00 00 00 00 00 00 00 00 00 00 00 00 00 00 00 00 00 41 C3 C3 C3 C3 00 40 0C 80 00 38 CC 0C 2D 0C AD 0A AD FC 0F 00 9C 00 00 44 28 04 0C 08 33 28 CC 4C DC FC FC 00 A9 00 54 FC FC 00 00 54 03 06 00 01 02 01 56 A8 14 3C 28 54 03 47 CF 00 00 00 00 00 00 00 00 00 0C 0C 24 30 24 24 CC 44 CC CC 28 00 00 00 00 00 00 00 00 0C C1 B8 30 24 0C CC C3 9C 28 00 00 00 00 3C 14 28 39 33 39 14 39 33 CC 11 76 FC FC 00 56 00 54 FC 88 54 A8 0C 0C 03 02 02 14 3C 28 54 00 00 03 45 03 08 45 8A 00 00 00 00 00 00 30 30 30 4C 88 98 64 CC 8C CC 20 10 8C 0C 18 18 CC 9C 00 00 54 0B AD FC FC 92 30 64 CC CC CC 9C CC 80 00 00 00 00 00 00 00 00 33 36 02 45 DE AC 56 00 FC 00 54 88 FC 88 CC 88 00 88 00 44 44 00 54 A8 00 00 00 CF 8E 08 28 CF 00 00 00 00 10 30 30 30 24 CC 64 30 20 00 24 0C 8C 0C 0C 0C 0C 20 00 00 00 05 0A AD 4B E9 FC AD D6 10 30 30 CC 8C 48 80 00 00 FF FF AA 00 00 00 33 33 33 33 23 FC FC 22 FC A8 A9 02 11 33 33 76 11 FC A8 33 33 33 23 02 33 33 33 19 26 13 33 33 00 00 00 00 30 30 0C 0C 18 30 18 30 30 0C CC CC CC CC 88 0C 80 00 00 00 00 00 80 C3 82 A8 00 00 00 00 04 48 C0 80 00 00 14 9C 9C 9C 3F 3F 1C 6C 3C 3C 3C 45 DE FC FC A8 14 3C 28 00 01 FC 00 00 00 54 A8 00 00 00 01 08 04 08 01 00 9A 20 CF 8A 00 00 00 00 30 0C 0C 0C 0C 18 CC 8C 4C CC CC CC CC CC 20 00 00 00 00 00 00 40 00 28 0F 0F 00 00 9C 3C 66 0C 4C 6C 36 66 9C 0C 0C 1C 99 3F A6 59 2E B7 B7 9C 3C CC 88 04 09 01 56 00 00 FC 00 00 00 01 02 00 06 00 0C 00 10 98 20 CF 30 45 CF 8A 00 00 05 0F 0F 18 30 30 64 CC CC 2C CC 08 14 CC CC CC CC CC 88 00 00 00 14 28 2D 0F 0A 44 39 28 14 00 28 28 22 88 3C 39 3C 00 0C 1C 9C 99 33 73 F3 B3 36 9C 9C 6D CF 03 03 FC FC 00 00 FC 00 FC 00 03 06 00 44 CC 88 00 45 CF CF 9A 20 CF 8A 00 00 05 0F 0F 1A 64 CC CC 9C 00 6C CC CC CC CC CC 14 CC CC CC CC 9C 6C 00 00 0F 0F 0A 00 00 44 0C CC 9C 6C CC 0C 1C 88 3C 66 00 00 00 00 00 3C 0C 0C 1C CC 39 9C 3C CF 56 A8 CF FC 00 54 FC A9 00 44 CC 88 00 00 00 45 CF CF CF 30 45 CF 8A 00 00 05 FC AD FC 18 CC CC 6C 9C 11 33 39 33 00 33 3C 33 3C 6C CC 36 00 5E 0A 05 A8 00 44 9C 3C C0 84 40 11 6C CC CC 28 6C CC 3C 00 00 00 00 00 28 00 04 48 9C 33 6C 6D CF FC FC 54 FC 00 9E 3C 28 80 00 04 08 C5 CA CF CF 6C 64 45 CF CF 9B 33 33 00 05 0F 0F 0F 30 30 24 30 0C 0C 0C 0C E9 00 FC A9 56 0F 87 00 00 00 00 C0 0C 9C 3C 68 84 48 40 40 40 40 36 0C 2C CC 39 3C 44 3C CC CC CC 66 99 3C 28 39 6C 3C 6C 30 24 00 CF CF 8A 3C 3C 68 48 48 4B 0C 86 C0 18 45 CF CF CF CF 00 00 00 00 00 00 FC FC AD 0F 34 30 3C 34 34 34 34 34 AD 54 05 0F 0F 0F 0A 0E 0C 0C 9C 3C 68 84 48 40 40 40 40 40 40 14 CC 0C CC 9C 88 33 36 28 9C 6C 66 CC 99 9C 28 9C 3C 88 14 3C 2C 00 00 00 CF CF CF CF CF CF CA 0C 40 00 9E CF 05 0F 4B C3 C3 C3 00 00 00 00 00 00 00 5E 0F 0F 5E 0F 0F AD 0F 6C 6C 2C 28 00 0A 05 0C 9C 3C 3C 84 0C 40 40 40 40 40 40 00 00 00 00 9B 6D CE CC CC 6C 3C 3C 3C 3C 28 CC 88 88 36 6C 3C 39 88 14 41 C3 82 00 00 00 FC FC FC 00 C4 CC C8 C0 C0 00 00 00 41 C3 C3 C3 00 00 00 00 00 00 00 00 40 00 A8 40 40 40 00 08 48 48 4C CC CC 9C 3C 84 0C 40 40 40 40 40 40 40 11 36 9C CC CC 9C 11 28 44 3C 2C 0C 42 9C 9C CC 9C 6C 6C 3C 9C 3C 33 88 00 00 41 C3 82 55 FF FF FF 00 00 00 0C 0C 0C C0 C0 CC 80 00 00 00 00 00 00 00 00 00 00 00 00 C3 C3 C2 40 40 40 40 C0 C0 C0 C0 C0 C0 C0 0C 40 40 40 40 40 40 40 40 33 36 3C 9C CC CC CC CC 6D 45 6D 28 45 44 8C 0C 42 9C 9C 3C 88 00 00 00 00 C3 C3 C3 C3 82 00 55 FF FF FF 00 00 04 CC 6C 9C 48 C4 C8 C4 C0 00 00 00 00 00 00 00 00 00 00 00 00 00 00 00 00 CC CC C8 C0 C0 C0 C0 C0 C0 C0 C0 40 40 40 40 11 33 36 36 3C CC CC CC CC CC CC 9C 67 9B 9B 11 11 45 28 00 45 14 9E 67 67 00 00 00 00 00 00 00 00 0F 0F 0F 00 00 00 00 04 0C 0C 0C 0C 48 C0 C0 C0 94 9E 04 80 00 00 00 00 00 00 00 00 11 33 33 33 33 33 26 3C 3C 3C 3C 3C C0 C0 C0 40 40 33 33 36 36 3C 9C CC CC CC CC CC CC CC CC 39 9B 9E CF 8A 45 9E CF CF 00 00 67 3C CF C0 C0 FC FC 0D 00 00 0F 0F 0F 00 00 00 04 CC 0C 0C 0C 0C 0C C0 94 9E 28 48 80 00 00 00 00 00 00 00 00 00 00 00 00 00 00 00 00 44 3C 3C 3C 3C 3C 3C 3C 3C 28 00 00 11 33 22 4D 33 33 33 33 36 6D 9B 36 67 45 45 67 45 45 45 45 11 8A 67 3C 3C 6D CF 33 AC 0A 00 00 00 00 00 00 00 00 00 0C 0C 84 19 66 CC CC 99 28 04 C0 80 00 00 00 00 00 00 00 00 00 00 00 00 00 00 00 00 00 00 9C 3C 3C 3C 3C 3C 69 C3 C3 00 00 00 49 FC FC FC FC 6D 6D 6D 6D CF CF 67 33 22 CF 33 CF CF 8A CF 8A 00 CF CF CF 00 05 0A 00 00 00 00 00 00 00 00 00 00 00 00 00 00 04 0C 0C 0C C0 C0 00 00 00 00 00 00 00 00 00 00 00 00 00 00 00 00 41 C3 C3 82 00 9C 3C 3C 3C 00 00 00 80 C0 C0 C0 80 05 0F 0F 0C 08 CF 67 33 67 67 67 8A 54 CF CF CF CF CF CF 67 33 22 67 00 0D 00 00 AA 00 AA AA 00 AA 55 55 55 55 55 55 55 55 55 00 00 00 00 00 00 00 00 00 00 00 00 00 00 00 00 00 00 00 00 00 00 00 00 00 00 44 3C 28 00 00 00 00 80 C0 C0 C0 C0 C0 40 00 00 00 00 00 00 00 00 00 00 0F 0F 0F 0C 08 00 00 FC FC FC AC 0A 00 00 00 00 00 00 00 00 00 00 00 00 00 00 00 00 00 00 00 00 00 00 00 00 00 00 00 00 00 00 00 00 00 00 00 00 00 00 00 00 00 00 00 00 00 00 00 00 00 00 00 00 00 00 00 00 00 00 00 00 00 00 00 00 00 00 00 00 00 00 00 00 00 00 00 00 00 00 00 00 00 00 00 00 00 00 00 00 00 00 00 00 00 00 00 00 00 00 00 00 00 00 00 00 00 00 00 00 00 00 00 00 00 00 00 00 00 00 00 00 00 00 00 00 00 00 00 00 00 00 00 14 3C 3C 00 00 00 FF AA 00 00 00 00 00 00 00 00 00 00 09 FC FC A9 00 00 00 00 00 00 00 00 00 00 00 04 86 49 C3 C3 C3 86 49 C3 C3 C3 0C C3 C3 C3 86 49 C3 C3 C3 C3 C3 C3 86 49 08 00 00 00 00 00 00 00 00 00 04 4C 00 00 00 00 00 50 F0 F0 F0 A9 03 00 00 00 C5 CF CF CF CF CF CF CF CF CF FC FC B9 67 FC A9 02 00 0C 00 41 C3 82 00 00 00 00 00 00 54 D6 E9 D6 FC FC C3 C3 FC FC FC E9 D6 FC FC FC C3 FC FC E9 D6 FC E9 D6 E9 A8 00 00 55 FF FF FF 00 00 00 00 00 04 8C 88 00 00 00 00 00 00 00 00 45 CF CF 9A 30 45 CF CF CF ED 09 56 FC A8 FC 33 CF 03 06 13 67 8B A8 00 00 00 00 00 00 00 00 00 00 0A 0F 0A 00 00 0F 0F 00 00 05 0F 0A 00 00 0F 0F 00 00 0A 05 0F 0A 05 05 00 41 C3 C3 00 05 0A 00 CC CC 00 3C 00 00 3C 08 00 00 CC CC CC CC CC 88 CC 45 CF CF 09 56 FC 00 A8 54 FC FC A8 54 13 CF 0C 0C 13 67 FC 33 CF 00 00 00 00 00 00 00 00 00 00 00 00 00 00 00 00 00 00 00 00 00 00 00 00 00 00 00 00 00 00 00 0C 0C 84 90 8C 28 AD 05 0F 5E AD CC 3C 00 0C 08 9C 20 00 33 CC 4C CD CF 6C 45 56 A9 FC 00 54 FC FC FC 00 54 FC A9 02 04 08 00 03 03 FC FC 33 CF 28 CF 00 00 00 00 00 00 00 00 00 00 00 00 00 00 00 00 00 00 00 00 00 41 C3 C3 C3 C3 00 40 48 00 00 64 8C 0C 8D 0C AD 0A AD 0F 0A 00 3C 00 00 44 28 04 0C 00 33 39 44 8C CC FC FC 00 A9 00 54 FC FC 00 00 01 03 06 00 01 02 01 FC 00 3C 3C 00 A9 03 47 CF 00 00 00 00 00 00 00 00 04 0C 18 30 0C 0C 24 CC 44 CC 64 28 00 00 00 00 00 00 00 00 84 D4 00 30 0C 0C CC CC 6C 3C 00 00 00 00 9C 6C 28 36 22 00 28 36 33 9C 11 FC FC A9 00 FC 00 54 EC CC 44 88 CC 44 CC 88 CC 88 14 00 FC 00 00 03 01 06 08 28 8A 00 00 00 00 00 04 30 30 24 4C 20 30 30 CC 8C CC 98 10 0C 18 0C CC CC 98 28 00 54 4B AD FC AD 4B 30 30 CC CC CC 6C 6C 80 00 00 00 00 00 00 00 00 33 36 00 CF DE 06 56 00 FC 00 54 88 FC 88 CC 88 00 88 00 EC 44 00 54 A8 00 00 45 CF 8E 08 28 CF 00 00 00 00 10 30 30 30 24 4C 98 30 30 00 24 4C 0C 18 24 0C 0C 24 00 00 00 00 0A AD 4B E9 5E 4B D6 10 30 64 CC 0C C0 80 00 00 FF FF AA 14 14 00 3C 3C 3C 3C 29 FC FC 36 FC A8 A9 00 3C 3C 14 FC 14 FC A8 7C 14 3C 29 02 36 3C 2C 1C 09 B9 36 3C 00 00 00 00 30 30 0C 0C 0C 30 30 30 24 4C CC CC CC CC 20 C0 00 00 00 00 00 00 80 54 00 A8 00 00 00 00 00 C0 C0 00 00 00 14 6C 6C 6C 33 3F 1C 9C 9C 3C 3C 3C DE FC FC 00 3C 3C 00 02 01 FC 00 00 00 54 A8 00 00 00 01 08 0C 08 00 45 9A 20 CF 8A 00 00 00 00 1A 0C 0C 0C 0C 18 64 8C 4C CC CC CC CC CC 20 00 00 00 00 00 00 40 44 28 AD 0F 00 00 3C 33 66 0C 4C 9C 36 CC 68 0C 0C 0C 99 3F 7B 0C 59 3F B7 6C 3C CC 00 0C 03 00 56 00 00 FC 00 00 00 01 02 00 0C 00 08 00 30 30 45 CF 30 45 CF 00 00 00 0F 0F 0F 18 CC CC CC CC CC 2C CC 08 14 CC CC CC CC CC CC 00 00 44 14 14 54 0F 0A 9C 39 22 00 3C 3C 14 00 14 39 3C 3C 04 00 14 CC 39 33 33 33 33 3C 6C 6C 3C CF 03 03 A8 FC 00 00 FC 00 A9 00 03 02 00 CC CC 00 00 45 CF CF 30 45 CF 8A 00 00 05 0F 0F 1A 64 CC CC 9C 11 3C CC CC CC CC CC 88 6C CC CC CC 3C 28 00 05 0F 0F 3C 28 14 04 0C CC 3C CC 8C 0C 1C 28 66 CC 00 00 00 00 00 2C 0C 0C 48 CC 3C 6C 9C CF 56 A8 CF FC 00 54 FC 02 00 64 CC 00 00 00 00 CF CF CF 9A 88 CF CF 8A 00 00 54 FC FC 0F 18 CC CC 9C 9C 00 33 33 00 FC 00 33 00 33 36 9C 36 00 54 00 00 A8 00 CC 3C 3C C0 08 80 91 6C CC 9C 00 3C CC 28 3C 3C 00 00 14 3C 00 04 C4 3C 36 98 6D CF FC FC 54 A8 45 3C 3C 40 04 00 04 08 C5 48 CF 9E CC 88 CF CF CF 33 33 33 00 05 0F 0F 0F 30 30 30 30 30 30 0C 0C E9 00 5E FC FC AD 87 00 00 00 40 0C 4C 3C 3C C0 0C 80 80 80 80 80 26 0C 0C CC 39 3C 44 3C CC 99 8C CC 9C 3C 00 36 6C 14 6C 34 24 45 CF CF CF 00 3C 3C 48 C0 C3 48 0C 40 4D CF CF CF CF 8A 00 00 00 00 00 00 FC FC 0F 0F 30 38 31 38 38 38 3C 39 AD 54 05 0F 0F 0F 0A 0E 0C 4C 9C 3C 68 0C 08 80 80 80 80 80 80 9C CC CC CC 3C 99 33 33 28 36 3C 39 99 6C 3C 44 14 6C 00 14 6C 2C 00 00 00 45 CF CF CF CF CF 8C 84 48 00 9E 00 05 0F 4B C3 C3 C3 00 00 00 00 00 00 00 5E 0F 0F 5E 0F 0F AD 0F 9C 9C 9C 0C 08 05 0E 4C 9C 3C 68 0C 08 80 80 80 80 80 80 80 00 00 CF 36 8A CC CC 9C 9C 3C 3C CC 3C 3C 00 11 39 3C 3C CC 39 88 00 41 C3 82 00 00 00 FC FC FC 00 48 C0 C0 C0 C0 00 00 00 41 C3 C3 C3 00 00 00 00 00 00 00 00 00 80 00 80 80 80 80 84 04 84 0C 4C CC CC 3C 0C 08 80 80 80 80 80 80 80 33 3C 6C CC CC 9C 22 36 44 3C 2C 0C 80 3C 6C CC CC 3C 3C 3C 99 33 CC 00 00 00 00 00 00 55 FF FF FF 00 00 00 0C 0C 0C C0 C8 CC C0 00 00 00 00 00 00 00 00 00 00 00 00 C3 C3 C3 80 80 80 C0 C0 C0 C0 C0 C0 C0 C0 C0 80 80 80 80 80 80 80 91 33 39 6C 6C CC CC CC CC 28 45 9E CF 9E 00 44 04 42 9C 6C CC 45 00 00 00 00 C3 C3 C3 C3 82 00 55 FF FF FF 00 00 04 CC 6C 9C 48 94 CC C0 C0 80 00 00 00 00 00 00 00 00 00 00 00 00 00 00 00 CC CC CC C0 C0 C0 C0 C0 C0 C0 80 80 80 80 80 33 33 39 3C 6C 6C CC CC CC CC CC 9C 14 CF 33 33 9B 9E 00 11 11 CF 9B 9B 45 FC FC 00 00 00 00 00 00 0F 0F 0F 00 00 00 00 04 0C 0C 0C 0C 48 C0 48 C0 3C 8A 04 80 00 00 00 00 00 00 00 00 11 33 33 33 33 33 22 9C 3C 3C 3C 3C 68 C0 C0 80 80 9B 33 39 3C 6C 6C CC CC CC CC CC CC CC CC 39 CF CF 6D 45 6D 28 6D 67 8A 11 9E 3C 3C CA C0 FC AC 0F 00 00 0F 0F 0F 00 00 00 0C CC 8C 0C 0C 0C 0C C0 3C 9E 00 48 80 00 00 00 00 00 00 00 00 00 00 00 00 00 00 00 00 44 3C 3C 3C 3C 3C 3C 3C 3C C3 00 00 00 00 04 82 9B 33 33 33 3C CF 33 36 33 8A 8A 9B 8A 8A 8A 8A 67 00 36 9E 9E 9B 9B 11 AC 0A 00 00 00 00 00 00 00 00 00 0C 0C 48 84 19 66 CC 9C 28 0C C0 80 00 00 00 00 00 00 00 00 00 00 00 00 00 00 00 00 00 00 9C 3C 3C 3C 3C 3C 69 C3 C3 00 00 04 C3 FC FC FC FC 6D 9E 9B CF 9B 9B 33 CF 45 9B CF 3C 9E 6D 3C 3C 9B 00 00 00 00 0D 00 00 00 00 00 00 00 00 00 00 00 00 00 00 00 00 0C 0C 0C C0 C0 00 00 00 00 00 00 00 00 00 00 00 00 00 00 00 00 41 C3 C3 82 00 9C 3C 3C 3C 00 00 40 40 40 C0 C0 80 80 05 0F 0F 0E 67 9B 9B CF CF 8A 00 FC CF CF CF CF 9B 9B 9B 33 11 45 00 0F 00 00 AA 00 AA AA 00 AA 55 55 55 55 55 55 55 55 55 00 00 00 00 00 00 00 00 00 00 00 00 00 00 00 00 00 00 00 00 00 00 00 00 00 00 00 9C 28 00 00 00 40 40 C0 C0 C0 C0 C0 80 80 00 00 00 00 00 00 00 00 00 00 05 0F 0F 0E 0C FC FC FC FC AC 0A 00 00 00 00 00 00 00 00 00 00 00 00 00 00 00 00 00 00 00 00 00 00 00 00 00 00 00 00 00 00 00 00 00 00 00 00 00 00 00 00 00 00 00 00 00 00 00 00 00 00 00 00 00 00 00 00 00 00 00 00 00 00 00 00 00 00 00 00 00 00 00 00 00 00 00 00 00 00 00 00 00 00 00 00 00 04 0C 0C 0C 0C 0C 0C 0C 0C 0C 0C 0C 0C 0C 0C 0C 0C 0C 0C 0C 0C 0C 0C 08 00 00 00 00 00 00 00 00 00 00 00 00 00 00 00 00 00 00 00 00 00 00 14 3C 3C 00 00 00 FF AA 00 45 CF CF CF CF 00 00 00 04 56 FC A8 03 02 00 00 00 00 00 00 00 00 00 00 04 86 49 C3 0C 49 C3 C3 86 0C C3 C3 C3 0C 49 C3 C3 86 0C C3 C3 0C C3 86 49 08 00 00 55 FF FF FF 00 00 00 04 8C 88 00 00 00 00 50 F0 F0 F0 A9 03 00 00 00 CF CF CF CF CF CF CF CF CF 8B FC FC 33 67 FC A9 02 00 0C 00 00 00 00 00 00 00 00 00 00 05 87 4B C3 0F 4B C3 C3 87 0F C3 C3 C3 0F 0F C3 C3 87 0F C3 87 0F 4B 87 4B 0A 41 C3 D7 FF FF FF 00 00 00 00 00 00 4C 08 00 00 00 00 00 00 00 00 CF CF CF 30 20 CF CF CF DE ED 03 FC FC A8 FC 33 CF 03 06 19 67 8B A8 00 00 00 00 00 00 00 00 00 00 0F 00 00 00 00 00 00 00 00 00 00 00 00 00 00 00 00 00 00 00 00 00 00 0F 00 00 00 00 00 0A 05 0A 00 00 9C 3C 3C 3C 33 08 6C 00 00 44 CC CC CD CE 88 CF CF CF 09 56 FC 00 A8 54 FC FC A8 01 13 CF 06 09 13 67 FC 33 CF 00 00 00 00 00 00 00 00 00 00 00 00 00 00 00 00 00 00 00 00 00 00 41 C3 C3 C3 C3 00 00 00 04 48 0C C0 90 8C 7C AD 05 0F FC AD 44 28 04 0C 08 9C 20 00 11 66 8C CC CF 9C 01 FC B9 FC 00 54 FC FC A8 00 54 FC 03 02 04 08 00 03 03 FC B9 33 9E 28 CF 8A 00 00 00 00 00 00 00 00 00 00 00 00 00 00 00 00 00 00 00 00 41 C3 C3 C3 C3 00 04 C0 00 04 64 0C 4C 8D 0E AD 0F 54 AD A8 14 99 28 00 99 28 04 04 00 39 39 44 CC 4C FC FC 54 06 00 54 FC FC 00 00 01 03 0C 00 01 03 01 A8 14 3C 28 54 03 03 47 CF 00 00 00 00 00 00 00 00 04 18 30 24 CC 8C 0C CC 44 CC CC 9C 00 00 00 00 00 00 00 00 48 80 0F 24 0C 4C CC CC 9C 9C 28 00 00 14 14 88 9C 11 33 22 28 33 33 6C 01 FC FC A9 00 FC 00 54 EC 44 44 88 CC 44 CC 88 CC CC 00 54 FC 00 00 03 03 06 08 28 8A 00 00 00 00 00 10 30 30 24 CC 98 30 30 CC CC 4C 98 0C 0C 18 30 30 30 CC 28 00 FC 4B AD FC AD 4B 30 30 CC CC CC 9C CC C0 00 00 00 00 00 00 00 00 3C 3C 3C 3C 7C 09 56 36 FC 33 7C CC 44 88 44 14 3C 88 88 EC 44 14 7C A8 36 3C 3C 3C 2C 19 36 3C 00 00 00 00 10 30 30 30 30 4C 64 30 30 30 0C 98 30 30 30 24 0C 04 00 00 00 40 0F 54 0A E9 C3 C3 A8 18 30 30 CC 0C C0 80 00 00 FF FF BE 6C 6C 3C 00 00 00 00 01 FC FC 00 FC A8 02 14 3C 28 54 FC 00 54 A8 FC 00 00 01 02 00 00 04 0C 03 A8 67 CF 00 00 00 00 30 24 0C 0C 0C 30 30 30 0C 4C CC CC CC CC 20 00 00 00 00 00 00 00 80 28 FC 00 00 00 00 00 00 40 80 00 3C 00 3C CC CC 9C 39 3F 1C 6C 3F 3E 3C CD FC FC A8 14 3C 28 01 02 54 FC 00 A8 00 54 A8 00 00 00 01 0C 0C 08 45 CF 9A 20 CF 8A 00 00 00 00 1A 0C 0C 0C 0C 18 CC 0C 4C CC CC CC CC CC 98 00 00 00 00 00 00 80 44 28 5E AD 00 44 3C 39 44 0C 4C 6C 36 CC 2C 08 0C 0C CC 3F 3F F3 F3 7B 3F 9C 3C 88 8E 09 03 00 56 00 00 FC 00 00 00 01 02 01 0C 00 00 10 98 20 CF CF 30 45 CF 00 00 05 5E 0F 0F 18 CC 4C CC CC CC 2C CC 08 88 6C CC CC CC CC CC CC 9C 38 14 14 5E 0F 0A 9C 39 36 00 CC 3C 28 3C 28 3C 3C 3C 28 40 80 9C 9C 39 33 33 66 39 3C 9C 3C CF 03 56 00 FC 00 00 FC 00 A9 00 03 00 44 CC 88 00 00 CF CF CF 30 45 CF 8A 00 00 05 0F 0F 18 64 CC CC 9C 33 6C CC CC CC CC CC CC 14 6C CC 3C 28 00 00 AD 0F 1E 94 94 3C 2C 4C 9C 36 6C 8C 0C 1C 88 6C CC 00 00 00 00 00 0C 0C 0C 48 CC 39 9C 3C CF FC A8 CF FC 8A 54 FC 00 10 CC 88 00 00 00 45 CF CF CF CE 20 CF CF 8A 00 00 54 FC 0F 0F 18 CC CC 3C 34 00 00 00 00 AD A8 00 00 00 11 39 28 00 00 00 00 00 C0 CC 3C 68 C0 48 40 00 36 3C 28 00 3C 3C 28 3C 3C 3C 3C 3C 3C 28 0C C4 39 33 98 24 CF FC FC 54 00 9E 3C 28 CA 04 08 0C 08 04 48 CF 6C 6C 45 CF CF 9B 33 33 33 00 05 0F 5E 5E 30 30 30 30 30 30 24 0C E9 05 5E FC FC AD 4B 0A 00 00 40 0C CC 3C 3C 84 48 40 40 40 40 40 2C 0C 0C CC 28 36 28 9C CC CC 26 26 CC 9C 00 36 9C 36 3C 9C 24 CF CF CF CF CF 00 3C 48 40 0C 48 0C 40 CF CF CF CF CF 00 00 00 00 00 00 00 FC 0F 0F 0F 0F 34 38 36 3C 3C 33 32 AD 82 AD 0F 0F 0F 0A 0C 0C CC 3C 3C 84 0C 40 40 40 40 40 40 00 14 CC CC CC 3C 88 00 00 00 66 39 6C 9C 36 3C 00 3C 88 88 00 3C 28 00 00 00 00 45 CF CF CF CF 88 80 40 00 CE 00 05 0F 4B C3 C3 C3 00 00 00 00 00 00 00 5E 0F 0F 5E 0F 0F AD 4E 6C 6C 6C 8C 0C C0 C0 CC 3C 3C 84 0C 40 40 40 40 40 40 40 00 00 45 CF 36 9B CC CC 6C 3C 3C 6C 9C CC 3C 28 33 36 6C 6C 9C 39 88 00 41 C3 82 00 00 00 FC FC FC 00 0C 0C 48 C0 C0 80 00 00 41 C3 C3 C3 00 00 00 00 00 00 00 00 40 40 40 40 40 40 40 C0 08 0C 0C 0C CC CC 2C 0C 48 40 40 40 40 40 40 40 33 3C 9C CC CC CC 39 45 00 CC C8 09 02 2C CC 3C CC 3C 3C 6C 44 CC 00 00 00 00 00 00 00 55 FF FF FF 00 00 00 1C 0C 8C C0 C8 6C C8 00 00 00 00 00 00 00 00 00 00 00 00 C3 C3 C3 C2 40 40 C0 C0 C0 C0 C0 C0 C0 C0 C0 40 40 40 40 40 40 40 11 36 36 3C CC CC CC CC CC 28 CF 6D 6D 3C 28 44 88 C0 9C 88 00 45 8A 00 00 00 C3 C3 C3 C3 82 00 55 FF FF FF 00 00 04 CC 6C 9C 0C C0 CC C0 C0 80 00 00 00 00 00 00 00 00 00 00 00 11 33 33 33 CC CC CC C8 C0 C0 C0 C0 C0 C0 C0 40 40 40 00 33 36 36 3C 3C CC CC CC CC CC CC 9C 14 CF 9B 67 67 28 45 00 22 22 67 22 67 C3 C3 0C 0C 00 00 00 00 0F 0F 0F 00 00 00 00 04 84 0C 0C 0C 48 C0 C0 C0 6D 28 48 80 00 00 00 00 00 00 00 00 11 33 33 33 33 33 22 9C 3C 3C 3C 3C 3C C0 C0 40 11 9B 36 36 36 3C CC CC CC CC CC CC CC CC CC 39 CF 9E 3C 3C 3C 9E 45 9B 8A 67 3C 3C 3C 39 C0 FC AC 0A 00 00 0F 0F 0F 00 00 00 0C CC CC 0C 0C 0C 0C C0 3C 36 04 C0 80 00 00 00 00 00 00 00 00 00 00 00 00 00 00 00 00 44 3C 3C 3C 3C 3C 3C 3C 3C C3 00 00 00 00 04 D6 45 33 33 36 6D 39 33 33 28 45 45 45 45 67 45 11 67 11 67 CF CF CF 33 11 0D 0A 00 00 00 00 00 00 00 00 00 04 0C 0C 48 0C 19 66 9C 00 48 C0 00 00 00 00 00 00 00 00 00 00 00 00 00 00 00 41 C3 C3 82 44 3C 3C 3C 3C 3C 69 C3 C3 00 00 04 D6 FC FC FC FC 6D CF 67 67 67 67 33 00 45 CF 9E 9E 3C 3C 3C 9E 6D 33 45 00 54 0D 00 00 00 00 00 00 00 00 00 00 00 00 00 00 00 00 00 0C 0C C0 80 00 00 00 00 00 00 00 00 00 00 00 00 00 00 00 00 41 C3 C3 82 00 9C 3C 3C 3C 00 00 00 80 C0 C0 C0 C0 40 00 00 0F 0F C3 CF CF CF 00 00 54 FC ED CF CF 67 67 67 33 22 67 8A 04 0A 00 00 FF 00 AA AA 00 AA 55 FF 55 55 55 AA 55 AA 55 AA 00 00 00 00 00 00 00 00 00 00 00 00 00 00 00 00 00 00 00 00 00 00 00 00 00 00 9C 28 00 00 00 00 00 00 00 00 00 00 00 00 00 00 00 00 00 00 00 00 00 00 00 00 0F 0F 0F 0C 5C FC FC 0D 0A 00 00 00 00 00 00 00 00 00 00 00 00 00 00 00 00 00 00 00 00 00 00 00 00 00 00 00 00 00 00 00 00 00 00 00 00 00 00 00 00 00 00 00 00 00 00 00 00 00 00 00 00 00 00 00 00 00 00 00 00 00 00 00 00 00 00 00 00 00 00 00 00 00 00 00 00 00 00 00 00 00 00 00 00 00 0C C3 C3 C3 C3 C3 C3 C3 C3 C3 C3 C3 C3 C3 C3 C3 C3 C3 C3 C3 C3 C3 C3 0C 00 00 00 00 00 00 00 00 00 00 00 00 00 00 00 00 00 00 00 00 00 00 14 3C 3C 00 00 00 00 00 CF CF CF CF CF CF CF 8A 00 04 56 FC A8 03 02 00 00 00 00 00 00 00 00 00 00 04 86 49 C3 0C 49 C3 C3 86 0C C3 C3 C3 0C 49 C3 C3 86 0C C3 C3 0C C3 86 49 08 00 00 55 FF FF FF 00 00 00 00 0C CC 00 00 00 00 50 F0 F0 F0 A9 03 00 00 45 CF CF CF CF 65 CF CF CF CF 56 FC FC 33 67 FC A9 13 00 04 08 00 00 00 00 00 00 00 00 00 54 D6 E9 C3 FC E9 C3 C3 D6 FC C3 C3 C3 FC FC C3 C3 D6 FC C3 D6 FC E9 D6 E9 A8 41 C3 D7 FF FF FF 00 00 00 00 00 00 04 CC 00 88 00 00 00 00 00 45 CF CF CE 98 45 CF CF CF FC A8 56 56 FC A8 FC 33 CF 03 0C 13 67 8B A8 00 00 00 00 00 00 00 00 00 00 05 0F 0F 0F 0F 0F 0F 0F 0F 0F 0F 0F 0F 0F 0F 0F 0F 0F 0F 0F 0F 0F 0F 0A 00 00 00 00 05 00 82 0A 00 44 9C 3C 00 99 33 3C 44 08 00 00 00 CF CF CC 88 CF CF ED 03 FC FC 00 00 FC FC FC A8 01 13 CF 0C 0C 13 67 FC 33 CF 8A 00 00 00 00 00 00 00 00 00 00 00 00 00 00 00 00 00 00 00 00 00 41 C3 C3 C3 C3 00 00 00 04 48 84 48 90 8C 7C AD 0F 0F FC AD 44 28 04 0C 08 9C 00 04 00 66 8C CC CF 3C 03 FC 33 FC 00 54 FC FC 00 00 54 A9 A9 02 04 08 00 03 56 FC B9 67 3C 3C 45 8A 00 00 00 00 00 00 00 00 00 00 00 00 04 0C 0C 0C 08 00 00 00 41 C3 C3 C3 C3 00 04 08 80 04 0C 0C CC 8D 0E 0D 4B 0A FC 00 00 99 66 CC 22 28 04 04 00 39 3C 22 CC 4C FC FC FC 06 00 54 FC FC 00 00 01 06 0C 00 01 03 54 00 3C 3C 45 A9 03 03 16 CF 00 00 00 00 00 00 00 00 0C 30 30 4C CC CC 0C CC 64 00 64 9C 00 00 00 00 00 00 00 00 C0 08 AD 0C 0C 64 CC CC CC 6C 28 00 00 00 14 88 9C 33 00 3C 14 33 33 99 56 FC FC 03 00 FC 00 54 CC 44 88 88 88 03 88 88 44 44 00 FC FC 00 00 03 03 0C 08 28 8A 00 00 00 00 00 10 30 30 24 CC 98 30 00 64 CC 4C 8C 0C 18 30 30 30 30 64 9C 00 FC 4B AD 5E 4B 4B 30 30 64 CC CC CC 68 C0 00 00 00 00 00 00 00 00 CC CC CC CC 89 09 FC 66 FC 66 DC EC 44 01 44 44 28 88 88 EC 44 44 DC A8 CC CC CC CC 8C 19 CC CC 00 00 00 00 10 30 30 30 30 4C 30 98 30 30 4C 64 98 98 CC 24 0C 08 00 00 00 40 05 54 0F 54 C3 D6 04 80 30 30 24 48 C0 00 00 00 FF BE 3C 3C 3C 6C 3C 14 28 00 54 FC FC 01 FC A8 00 3C 3C 00 56 FC 00 54 FC FC 00 00 01 02 00 00 04 09 56 A8 45 CF 00 00 00 00 30 24 0C 0C 0C 30 30 30 0C CC CC CC CC 98 00 00 00 00 00 00 00 00 80 9C 00 00 00 00 00 00 00 00 00 3C CC 9C 6C 6C CC CC 3C 2E 3C 9D 3F 3F 3C 3C FC FC 00 3C 3C 00 03 02 00 FC 54 A8 00 54 A8 00 00 00 04 0C 0C 08 CF CF 9A 20 CF 8A 00 00 00 05 1A 0C 0C 0C 0C 64 98 0C 4C CC CC CC CC CC 98 00 00 00 00 00 00 44 44 05 0F 5E 0A 44 3C 3C 44 0C 4C 9C 66 9C 84 0C 04 0C 6C 37 3F 3F 3F 3F 3B 6C 3C 67 8E 09 02 00 FC 00 00 FC 00 00 00 01 02 03 0C 00 00 64 30 45 CF CF 20 CF CF 00 00 5E AD 0F 0E 64 CC 4C CC CC CC 9C 4C CC 20 6C CC CC CC CC CC CC 9C 6C 00 28 0F AD 0A 9C 39 28 44 9C 9C 3C 33 36 14 66 3C 28 04 C0 44 3C 9C 33 33 CC 66 3C 6C 6D 8B 03 02 00 FC 00 00 FC 00 A9 00 02 00 CC CC 00 00 00 CF CF CF 30 45 CF 8A 00 00 05 0F 0F 18 64 CC CC 38 36 6C 9C CC CC CC CC CC 88 14 3C 3C 14 00 05 AD 0F 4A 68 68 6C 2C 4C 9C 36 CC 0C 0C 9C 28 6C CC 00 00 00 00 00 04 0C 08 48 CC 3C 6C 9C CF FC A8 CF FC A8 DE A8 00 64 6C 00 00 00 00 CF CF CF CF 64 20 CF CF 33 33 00 FC 0F 0F 0F 18 CC CC 9C 34 00 00 00 54 0F 0A 05 0F 0A 00 33 28 00 00 00 40 C0 4C 9C 3C C0 84 80 80 80 11 33 3C 00 14 3C 28 3C 3C 3C 3C 3C 3C 3C 0C C4 39 14 98 24 CF FC FC 00 45 3C 3C 45 CA 00 0C 0C 48 04 84 9E 9C 88 CF CF CF 9B 33 33 33 00 05 0F AD AD 30 30 30 30 24 0C 18 0C E9 05 0F FC FC 0F 4B 0A 00 40 84 4C 9C 3C 68 84 08 80 80 80 80 80 2C 0C 0C 4C 28 36 28 9C 6C 8C 0C 19 99 3C 28 3C 9C 36 6C 6C 24 45 CF CF CF CF CF 00 04 40 0C 08 0C C5 CF CF CF CF CF 0F 0A 00 00 00 00 00 AD 0F 0F 0F 0F B8 3C 31 33 33 30 30 AD 82 A8 0F 0F 0F 05 0C 4C 9C 3C 68 0C 08 80 80 80 80 80 80 80 44 6C CC 9C 6C 00 00 6C 00 11 3C 39 3C 3C 36 44 CC 11 88 00 6C 3C 00 00 00 00 00 CF CF CF CE 8A 04 08 00 CE 00 05 0F 4B C3 C3 C3 00 00 00 00 00 00 00 AD 0F 0F 5E 0F 0F AD 1E 9C 9C 9C CC 0C 0C C0 9C 3C 3C 84 08 80 80 80 80 80 80 80 00 00 CF CF 36 22 9C 9C 3C 3C CC 9C 6C 3C 9C 3C 3C 3C 3C CC CC 39 88 00 41 C3 82 00 00 00 FC FC FC 00 0C 0C 48 C0 C0 80 00 00 41 C3 C3 C3 00 00 00 00 00 00 00 00 00 80 80 80 80 80 80 C0 C0 0C 0C 0C 0C CC 0C 0C 80 80 80 80 80 80 80 91 33 6C 6C CC CC CC 28 33 8A 00 04 01 14 0C 4C CC 6C 9C 3C 28 00 00 00 00 00 00 00 00 00 55 FF FF FF 00 00 00 1C 0C 2C 48 CC C4 C8 00 00 00 00 00 00 00 00 00 00 00 00 C3 C3 C3 C3 80 C0 C0 C0 C0 C0 C0 C0 C0 C0 C0 80 80 80 80 80 80 80 33 33 3C 6C 6C CC CC CC CC 28 67 9E 9E 3C 8A 44 9C 14 3C 28 00 CF 8A 00 00 00 C3 C3 C3 C3 82 00 00 00 00 00 00 00 04 CC 6C 9C 0C C0 6C C0 84 C0 08 00 00 00 00 00 00 00 00 00 00 11 33 33 33 CC CC CC 0C C0 C0 C0 C0 C0 C0 80 80 80 80 91 33 33 39 3C 6C CC CC CC CC CC CC 9C 00 3C 9B 9B 3C 00 28 9B 9B 11 11 11 8A C3 C3 0F 0F 0C 0C 00 00 0F 0F 0F 00 00 00 00 04 0C 84 0C 0C 48 84 C0 94 6D 28 48 80 00 00 00 00 00 00 00 00 11 33 33 33 33 33 22 9C 3C 3C 3C 3C 3C 3C C0 80 11 00 45 11 36 6C 6C CC CC CC CC CC CC CC CC 39 CF 45 6D 6D 6D CF 8A 33 8A 9E 6D 6D 3C 3C 62 D4 AC 0A 00 00 0F 0F 0F 00 00 00 0C CC CC CC 8C 0C 0C 94 39 3C 04 C0 80 00 00 00 00 00 00 00 00 00 00 00 00 00 00 00 00 44 3C 3C 3C 3C 3C 3C 3C 69 C3 00 00 00 00 49 D6 A8 CF 9B 3C 9E 9B 22 9B 14 33 9B 33 9B 8A 8A 33 8A 11 CF 9B 9B 67 22 22 0D 00 00 00 00 00 00 00 00 00 00 00 0C 0C 0C C0 0C 19 22 04 48 C0 00 00 00 00 00 00 00 00 00 00 00 00 00 00 00 41 C3 C3 82 44 3C 3C 3C 3C 3C C3 C2 40 40 C0 84 D6 FC FC FC FC CF 9B 9B 9B 9B 9B 33 22 45 CF 9E 6D 3C 3C 6D 6D CF 22 22 8A FC 0F 00 00 00 00 00 00 00 00 00 00 00 00 00 00 00 00 00 00 0C 48 80 00 00 00 00 00 00 00 00 00 00 00 00 00 00 00 00 41 C3 C3 82 00 9C 3C 3C 28 00 00 40 40 40 C0 C0 C0 80 80 80 00 05 4B C3 C3 D6 A8 54 FC FC ED CF CF 9B 9B 9B 9B 11 CF 00 AC 0A 00 00 AA 00 AA AA 00 AA 55 55 55 55 55 55 55 00 55 00 00 00 00 00 00 00 00 00 00 00 00 00 00 00 00 00 00 00 00 00 00 00 00 00 00 00 9C 00 00 00 00 00 00 00 00 00 00 00 00 00 00 00 00 00 00 00 00 00 00 00 00 00 00 05 0F 0F 0E 0C FC 0D 00 00 00 00 00 00 00 00 00 00 00 00 00 00 00 00 00 00 00 00 00 00 00 00 00 00 00 00 00 00 00 00 00 00 00 00 00 00 00 00 00 00 00 00 00 00 00 00 00 00 00 00 00 00 00 00 00 00 00 00 00 00 00 00 00 00 00 00 00 00 00 00 00 00 00 00 00 00 00 00 00 00 00 00 00 00 49 0C 0C 0C 0C 0C 0C 0C 0C 0C 0C 0C 0C 0C 0C 0C 0C 0C 0C 0C 0C 0C 0C 86 00 00 00 00 00 00 00 00 00 04 00 00 00 00 00 00 00 50 F0 F0 F0 00 14 3C 3C 00 00 00 00 45 CF CF CF CF CF CF CF CF A8 01 56 FC A8 01 02 00 41 C3 82 00 00 00 00 00 00 04 86 49 86 0C 0C C3 C3 0C 0C 0C 49 C3 C3 C3 C3 C3 0C 0C 49 86 0C 49 86 49 08 00 00 55 FF FF FF 00 00 00 00 4C 4C 00 00 00 00 50 F0 F0 F0 00 00 00 00 CF CF CF CF 30 20 CF CF CF 8B FC FC FC 33 67 FC 03 13 22 04 02 00 00 00 00 00 00 00 00 00 05 05 0F 00 00 00 05 0A 00 00 00 0F 00 00 00 05 0A 00 00 00 05 0F 0A 05 0A 0A 41 C3 D7 FF FF FF 00 0C 0C 0C 0C 08 00 4C 14 9C 00 00 00 00 00 45 CF CF CC CC 45 CF CF 8B FC A8 01 FC FC FC FC B9 CF 03 0C 19 67 DE B9 00 00 00 00 00 00 00 00 00 00 00 00 00 00 00 00 00 00 00 00 00 00 00 00 00 00 00 00 00 00 00 00 00 00 00 00 00 00 05 00 C3 87 00 00 CC 28 00 44 33 22 22 8C 00 00 00 CF CF CC 45 CF DE ED 56 FC FC 00 54 FC FC FC 02 01 02 CF 0C 09 13 76 FC 33 CF 8A 00 00 00 00 00 00 00 00 00 00 00 00 00 00 00 00 00 00 00 00 00 41 C3 C3 C3 C3 00 00 00 0C 80 04 C0 64 0C 7C FC 0F 5E FC AD 6C 28 04 0C 00 9C 00 0C 08 33 CC 4C CD 29 56 FC 33 FC 00 54 FC FC 00 00 54 FC 03 02 04 02 00 03 56 FC 33 9E 3C 3C 45 8A 00 00 00 00 00 00 00 00 00 00 00 04 18 30 0C 0C 98 28 00 00 00 00 00 00 00 00 00 0C 80 04 0C 0C CC 98 0E 85 C3 C3 00 00 00 99 33 33 36 11 00 08 14 22 39 66 44 8C DC FC A9 09 00 54 FC FC 00 00 01 06 0C 00 01 03 00 14 3C 28 45 A9 03 01 16 45 00 00 00 00 00 00 00 00 18 30 24 CC 88 44 30 4C 64 08 64 CC 28 00 00 00 00 00 00 00 84 54 0F 86 18 30 CC CC CC 9C 9C 00 00 00 00 6C 39 28 3C 00 00 33 33 29 56 FC FC 06 00 FC 00 54 88 FC 88 88 88 03 88 88 44 44 00 FC FC 00 00 03 06 04 08 28 8A 00 00 00 00 00 30 30 30 24 CC 98 30 08 64 CC 0C 0C 18 30 30 30 30 30 64 9C 54 54 4B E9 0F 87 0F 92 30 30 CC CC 9C 60 C0 00 00 00 00 00 00 00 00 3C 3C 3C 3C 29 09 FC 36 FC 36 7C EC CC 00 6C 14 6C CC 88 CC 6C 88 7C 02 3C 3C 3C 3C 2C 19 3C 3C 00 00 00 00 10 30 30 30 30 4C 30 30 30 30 18 CC CC CC CC 98 20 08 00 00 00 40 00 0A AD 00 FC A8 C0 00 30 30 0C C0 C0 00 00 00 7D 3C 3C 3C 3C 3C 3C 28 28 CF DE FC FC A9 FC A8 14 3C 28 01 FC FC 00 54 FC FC 00 00 01 02 00 08 04 03 56 00 CF CF 00 00 00 00 30 24 0C 0C 0C 18 30 30 0C CC CC CC CC 98 00 00 00 00 00 00 00 00 80 9C 00 0A 00 00 00 00 00 44 CC 36 6C 3C 66 CC CC CC 3C 2E 3C 3F 2E F3 3E 3C FC B9 44 3C 28 01 03 02 00 FC FC A8 00 54 A8 00 00 00 04 0C 0C 00 CF CF 9A 20 CF 8A 00 00 00 05 1A 0C 0C 0C 0C 64 98 0C CC CC CC CC CC CC 98 00 00 00 00 00 00 14 14 05 0F 0F A8 44 3C 3C 44 8C CC 66 66 9C 0C 04 04 0C 6C 73 3F 3F 3F 3F 3B 9C 9C 6D 8E 09 02 00 FC 00 00 FC 00 00 00 01 03 06 0C 00 44 98 20 CF CF 9A 20 CF CF 00 00 FC 5E 0F 0E 64 CC CC CC 9C CC 9C 4C CC 98 14 CC CC CC CC CC CC 9C 3C 14 2D 0F AD 00 9C 36 44 8C 4C 3C 33 CC 36 14 39 9C 28 80 C0 00 6C 6C CC CC CC CC 36 9C 3C 03 03 02 8A FC 00 00 FC 54 03 00 00 44 CC 88 00 00 45 CF CF 9A 20 CF CF 8A 00 00 05 AD 0F 18 64 CC CC 98 36 3C 6C 6C CC CC CC CC CC 88 00 00 36 00 AD AD 0F 94 94 94 9C 2C 4C 39 36 CC 0C 0C 9C 88 39 CC 28 00 00 00 00 04 08 08 48 CC 39 9C 9C CF FC A8 CF FC A8 DE 00 10 9C 68 C0 80 00 45 CF CF CF 9A CC 45 CF CF 33 33 00 AD 0F 0F 0F 18 30 30 3C 0C 0C 08 00 54 C3 00 FC E9 87 00 14 00 00 00 00 40 0C CC 3C 3C C0 48 40 40 00 00 36 3C 6C 00 3C 00 3C 6C 6C 3C 9C 9C 3C 48 9C 11 14 98 30 5C FC FC 00 9E 3C 28 CF CA 00 0C 48 48 04 04 6C 6C 28 CF CF CF 33 33 33 33 00 54 5E 5E 1A 30 30 24 0C 18 30 30 30 E9 05 5E 5E FC AD 4B 0A 00 84 0C 4C 3C 3C C0 0C 40 40 40 40 40 40 2C 0C 0C 4C 28 36 28 9C 6C 99 19 4C 4C 36 28 3C 9C 36 6C 6C 2C 45 CF CF CF CF CF CF 8E 40 0C 08 84 C5 CF CF CF CF 8F 0F 0A 00 00 00 00 00 00 05 0F 0F 5E 0F 30 38 30 30 30 25 AD 82 C3 05 0F 0F 05 0C 4C 3C 3C 68 0C 40 40 40 40 40 40 40 00 44 6C 9C 3C 6C 01 CC 3C 88 00 9C 3C 3C 3C 39 28 00 22 CC 00 14 28 00 00 00 00 00 00 45 CF CE 8A 00 40 45 88 00 05 0F 4B C3 C3 C3 00 00 00 00 00 00 00 AD 0F 0F AD 0F 0F 5E 4A 6C 6C 6C CC CC 0C 4C 3C 3C 68 0C 48 40 40 40 40 40 40 11 36 6C 0C 0C 36 9B 9C 3C 3C 6C CC CC 3C CC 6C 3C 3C 3C 6C CC CC 39 88 00 41 C3 82 55 FF FF FF 54 FC 00 0C 0C 0C C0 C0 C0 00 00 41 C3 C3 C3 00 00 00 00 00 00 00 00 00 40 40 40 40 40 40 C0 C0 84 0C 0C 0C 0C 0C 48 40 40 40 40 40 40 40 11 36 3C CC CC CC CC 39 11 45 33 66 28 14 09 46 6C 9C 9C 3C 88 00 00 00 00 00 00 00 00 00 55 FF FF FF 00 00 04 1C 0C 2C 48 CC C4 C8 80 00 00 00 00 00 00 00 00 00 00 00 C3 C3 C3 C3 C6 40 C0 C0 C0 C0 C0 C0 C0 C0 C0 40 40 40 40 40 40 11 33 36 36 9C CC CC CC CC CC 9C 67 CF 39 39 CF 45 9C 3C 6C 00 8A 3C CF 00 00 00 C3 C3 C3 C3 82 00 00 00 00 00 00 00 04 4C 0C 9C 0C C0 84 C0 C0 C0 2C 08 00 00 00 00 00 00 00 00 00 11 33 33 33 CC CC 8C 1C 3C C0 C0 C0 C0 C0 C0 40 40 40 33 33 36 36 3C 9C CC CC CC CC CC CC 9C 00 00 3C 3C 00 00 14 45 67 67 22 22 28 C0 C0 0F 0F 0F 0E 00 00 0F 0F 0F 00 00 00 00 04 0C 0C 84 0C 48 C0 C0 94 9E 04 48 00 00 00 00 00 00 00 00 00 11 33 33 33 33 33 22 9C 3C 3C 3C 3C 3C 3C 3C 40 33 CF 8A 11 33 22 14 9B 9B CC CC CC CC CC CC 6D 67 CF 9E 9E 9E 45 CF 33 8A 9E CF 9E 3C 9E 62 D4 0D 0A 00 00 0F 0F 0F 00 00 04 0C 4C CC CC CC CC 0C 94 39 28 04 C0 00 00 00 00 00 00 00 00 00 00 00 00 00 00 00 00 00 00 9C 3C 3C 3C 3C 3C 3C 69 C3 00 00 00 00 49 FC FC 00 11 6D 3C 33 22 CF 22 3C 33 9B 9B 67 45 36 00 11 CF CF 67 11 22 8A 0D 00 00 00 00 00 00 00 00 00 00 00 04 0C 0C 0C C0 0C 33 04 C0 80 00 00 00 00 00 00 00 00 00 00 00 00 00 00 00 41 C3 C3 82 44 3C 3C 3C 3C 3C C3 82 80 80 C0 84 5C FC FC FC FC 6D CF 67 67 33 67 22 00 67 CF 6D 9E 9E 9E 9E 9E 67 9B 00 8A 04 0A 00 00 00 00 00 00 00 00 00 00 00 00 00 00 00 00 00 00 04 48 00 00 00 00 00 00 00 00 00 00 00 00 00 00 00 00 00 00 00 00 00 00 44 3C 3C 28 00 00 00 80 C0 C0 C0 C0 40 40 00 00 00 00 0F 4B C3 0E 0C FC FC FC CF CF CF 67 67 67 CF 8A 00 AD 0A 00 00 AA 00 AA AA 00 AA 55 55 55 55 55 55 55 00 55 00 00 00 00 00 00 00 00 00 00 00 00 00 00 00 00 00 00 00 00 00 00 00 00 00 00 00 9C 00 00 00 00 00 00 00 00 00 00 00 00 00 00 00 00 00 00 00 00 00 00 00 00 00 00 00 00 0F 0F 0F 0C 0F 00 00 00 00 00 00 00 00 00 00 00 00 00 00 00 00 00 00 00 00 00 00 00 00 00 00 00 00 00 00 00 00 00 00 00 00 00 00 00 00 00 00 00 00 00 00 00 00 00 00 00 00 00 00 00 00 00 00 00 00 00 00 00 00 00 00 00 00 00 00 00 00 00 00 00 00 00 00 00 00 00 00 00 00 00 04 86 0C 0C 0C 0C 0C 0C 0C 0C 0C 0C 0C 0C 0C 0C 0C 0C 0C 0C 0C 0C 0C 0C 49 08 00 00 00 00 00 00 00 00 04 88 00 00 00 00 00 00 50 F0 F0 F0 00 14 3C 3C 00 C0 C0 C0 CF CF CF CF CF CF CF CF CF ED 8B FC FC A8 01 02 00 41 C3 82 00 00 00 00 00 00 01 83 43 83 03 03 C3 C3 03 03 03 43 C3 C3 C3 C3 C3 03 03 43 83 03 43 83 43 02 00 00 55 FF FF FF 00 00 00 00 04 8C 88 00 00 00 50 F0 F0 F0 00 00 00 45 CF CF CF 30 30 20 CF CF CF 09 56 A8 FC 33 CF FC 03 13 67 04 02 00 00 00 00 00 00 00 00 00 05 87 0F C3 C3 C3 87 4B C3 C3 C3 0F C3 C3 C3 87 4B C3 C3 C3 87 0F 4B 87 4B 0A 41 C3 D7 FF FF EE CC CC CC CC CC CC 88 04 88 3C 00 00 00 00 00 CF CF CF CC 88 CF CF CF 56 FC A8 54 FC FC FC FC B9 CF 06 0C 19 67 DE B9 00 00 00 00 00 00 00 00 00 00 00 00 00 00 00 00 00 00 00 00 00 00 00 00 00 00 00 00 00 00 00 00 00 0C 00 00 00 00 05 41 C3 87 00 44 3C 28 00 44 3C 39 22 8C 88 00 00 CF CE CC 45 CF FC A8 56 FC FC 00 54 FC FC FC A8 01 08 00 0C 06 13 76 B9 67 CF 8A 00 00 00 00 00 00 00 00 00 00 00 00 00 00 00 00 00 00 00 00 00 41 C3 C3 C3 C3 00 00 00 48 00 40 C0 64 1C 5C FC 0F FC FC AD 44 28 04 04 00 9C 00 0C 08 22 CC 8C CC 03 FC FC 33 FC 00 54 FC FC 00 00 54 A9 03 08 04 02 00 03 FC FC 33 3C 3C 3C 47 8A 00 00 00 00 00 00 00 00 00 00 04 0C 30 30 24 4C CC 9C 00 00 00 00 00 00 00 00 00 0C C0 04 0C 4C CC CC 49 84 4B 82 00 00 14 44 33 00 3C 14 00 00 14 00 39 66 88 CC 5C FC A9 09 00 54 FC FC 00 00 03 0C 06 00 03 03 00 3C 3C 00 45 03 02 01 14 45 8A 00 00 00 00 00 00 04 18 30 24 CC 00 44 98 4C 98 08 10 CC 28 00 00 00 00 00 00 54 0C 54 0F 4B 30 30 CC CC CC 6C 3C 00 00 00 00 3C 3C 3C 00 28 00 33 36 03 FC 54 FC 09 00 FC 00 54 88 FC 88 88 88 03 88 00 44 44 00 FC A8 00 00 03 02 04 08 28 CF 00 00 00 00 00 30 30 30 24 CC 98 30 08 10 CC 0C 18 30 CC CC 30 30 20 00 44 2D 54 0F D6 C3 87 FC 92 30 30 CC CC CC 68 C0 00 00 FF FF AA 00 00 00 3C 3C 3C 3C 2C 03 FC 36 FC 36 7C A9 88 14 6C 14 6C CC 88 CC 6C 88 7C 02 3C 3C 3C 3C 2C 19 3C 3C 00 00 00 00 10 30 30 30 30 24 98 30 30 30 0C 4C CC CC CC 88 04 80 00 00 00 00 80 87 54 0A A8 40 80 00 18 24 0C C0 80 00 00 00 BE 3C 3D 3F 3C 3C 3C 9C 00 CF DE FC FC A9 FC 00 3C 3C 00 03 FC FC 00 54 FC A8 00 00 01 02 04 08 04 03 A8 45 CF CF 00 00 00 00 30 24 0C 0C 0C 18 98 30 0C CC CC CC CC 98 00 00 00 00 00 00 00 40 00 9C 00 0A 00 00 00 00 00 9C 3C 99 6C 66 9C CC 3C CC 39 2E 3C 3F 59 3F 3E 3C 7C 33 9C 9C 00 01 03 A8 00 FC FC A8 00 54 02 00 01 00 06 0C 08 45 65 CF 9A 20 CF 8A 00 00 00 0F 1A 0C 0C 0C 18 64 9C 0C CC CC CC CC CC CC CC 20 00 00 00 00 00 3C 14 05 0F 0A 00 44 9C 39 28 CC 9C 6C 66 CC 0C 00 04 0C 6C 33 B7 3F 3F 3F 3B 6C 3C 6D 8E 03 02 01 FC 00 00 FC 00 00 00 01 03 06 08 00 CC 98 00 CF CF 9A 20 CF CF 00 00 0F FC 0F 0E 64 CC CC CC 6C 6C CC 2C CC 98 14 CC CC CC CC CC CC 9C 28 14 0F 0F 5E 00 9C 36 04 4C 1C 9C 66 CC 3C 14 36 9C 00 00 00 00 3C CC CC CC CC 99 3C 6C 3C 03 03 02 8A FC 00 00 FC FC 03 00 00 CC CC 00 00 00 45 CF CF 9A 20 CF CF 00 00 00 5E 5E 5E 18 64 CC CC 98 33 3C 9C CC 6C CC CC CC CC CC CC 9C 36 00 AD 5E 0F 00 68 6C 9C 3C 9C 22 36 CC 0C 0C 6C 11 CC CC 28 00 00 00 00 04 08 08 48 9C 11 3C CD CF FC A8 CF FC A8 8A 45 34 3C 84 0C C0 45 CF CF CF CF CE 88 CF CF CF 33 33 00 05 0F 0F 0F 18 30 30 2C 0C 0C 0C 00 54 82 54 03 56 4B 0A 28 00 00 00 00 84 0C 9C 3C 68 84 08 80 80 80 11 3C 3C 3C 88 00 14 3C CC CC CC 6C 39 3C 68 9C 33 36 98 30 5C FC A8 45 3C 3C 45 CF 8A 04 48 08 40 84 04 3C 3C 45 CF CF CF 33 33 33 33 00 05 AD AD B8 30 38 30 30 30 30 30 30 E9 05 0F FC AD AD 0A 0A 40 0C 0C 9C 3C 3C 84 08 80 80 80 80 80 80 2C 0C 0C 1C 28 33 3C 44 6C 8C 0C 26 99 9C 00 6C 3C 36 3C 6C 2C 00 CF CF CF CF CF CF CF 48 84 80 04 80 CF CF CF CF 0F 0F 0A 00 00 00 00 00 00 00 0F 0F AD 0F 1A 30 30 30 0F 0F 5E 4B A8 00 0F 05 05 0C CC 3C 3C 84 0C 80 80 80 80 80 80 80 00 00 9C 3C 6C 88 09 C4 9C 9C CC 44 36 39 39 3C 11 33 36 66 00 14 28 00 00 00 00 00 00 00 00 44 8A 40 80 45 88 00 00 00 41 C3 C3 C3 00 00 00 00 00 00 00 00 00 0F AD 0F 0F 5E 04 84 94 9C CC CC 8C 4C 3C 3C 84 0C 80 80 80 80 80 80 80 11 3C 8C 0C 1C 36 22 9C 3C 3C 0C C4 CC 3C 3C 3C 9C 3C 3C CC CC 9C 39 88 00 41 C3 82 55 FF FF FF 54 FC 00 0C 0C 0C C0 C0 C0 00 00 00 00 00 00 00 00 00 00 00 00 00 C3 C3 80 80 80 80 80 C0 C0 C0 C0 84 0C 0C 0C 0C 08 80 80 80 80 80 80 80 33 3C 6C 6C CC CC CC 28 8A 00 00 44 3C 3C 0C 09 9C 9C 9C 3C 88 00 00 00 00 00 00 00 00 00 55 FF FF FF 00 00 04 4C 2C 6C 48 6C C8 CC 80 00 00 00 00 00 00 00 00 00 00 00 C3 C3 C3 C3 C6 C8 C0 C0 C0 C0 C0 C0 C0 C0 C0 80 80 80 80 80 80 91 33 39 3C 6C CC CC CC CC CC 9C 67 CF 67 67 67 8A 9C 3C 6C 00 14 6D CF 00 00 00 C3 C3 C3 C3 82 00 00 00 00 00 00 00 04 4C 0C 8C 0C C0 C0 C0 48 C0 6D 0C 08 00 00 00 00 00 00 00 00 11 33 33 33 66 CC 8C 3C 3C 68 C0 C0 C0 C0 80 80 80 91 33 33 39 3C 6C 6C CC CC CC CC CC CC 9C 00 00 00 00 11 33 22 3C 9B 8A 9B 3C 40 C0 C0 D4 FC 0F 0E 00 00 0F 0F 0F 00 00 00 00 0C 0C 0C 0C 84 C0 48 C0 3C 9E 04 C0 00 00 00 00 00 00 00 00 00 11 33 33 33 33 33 22 9C 3C 3C 3C 3C 3C 3C 3C 28 33 CF 00 11 33 22 14 67 33 CF CF CF CE CC CC 33 9B 9B 28 6D 8A 8A 8A 9B 8A 36 00 45 3C 6D 39 D4 0D 00 00 00 00 00 00 00 00 04 84 19 CC CC CC CC CC 3C 36 28 48 C0 00 00 00 00 00 00 00 00 00 00 00 00 00 00 00 00 00 00 9C 3C 3C 3C 3C 3C 3C 69 C3 00 00 00 04 C3 FC FC E9 96 9E 9E 9B CF 67 33 00 6D 6D 33 9B 9E 8A 14 45 CF 33 9B 22 22 8A 0F 00 00 00 00 00 00 00 00 00 00 00 00 04 0C 0C 0C 84 0C 0C C0 80 00 00 00 00 00 00 00 00 00 00 00 00 00 00 00 41 C3 C3 82 44 3C 3C 3C 3C 3C C3 C2 40 40 C0 85 0E 5C FC FC FC BC 9B 9B 9B 9B 33 22 11 45 CF CF 6D 6D 6D 39 9B 9B 22 11 8A 04 0A 00 00 00 00 00 00 00 00 00 00 00 00 00 00 00 00 00 00 00 40 00 00 00 00 00 00 00 00 00 00 00 00 00 00 00 00 00 00 00 00 00 00 44 3C 3C 28 00 00 40 40 C0 C0 C0 C0 80 80 80 00 00 00 00
[...]
		05 0F 0F 0F 0C 5C FC FC CF 9B 9B 9B CF 8A 00 FC
		0D 00 00 00 AA AA FF 00 AA AA 55 55 00 AA 55 55
		55 00 55 AA 00 00 00 00 00 00 00 00 00 00 00 00
		00 00 00 00 00 00 00 00 00 00 00 00 00 00 9C 00
		00 00 00 00 00 00 00 00 00 00 00 00 00 00 00 00
		00 00 00 00 00 00 00 00 00 00 00 00 05 0F 0F 0A
		00 00 00 00 00 00 00 00 00 00 00 00 00 00 00 00
		00 00 00 00 00 00 00 00 00 00 00 00 00 00 00 00
		00 00 00 00 00 00 00 00 00 00 00 00 00 00 00 00
		00 00 00 00 00 00 00 00 00 00 00 00 00 00 00 00
FFF0 :	00 00 00 00 00 00 00 00 00 00 00 00 00 00 00 00


# HEADOVER.II   Start addr: 0x0100, length 0xA2C0, Enter Point 0x0000

	     0  1  2  3  4  5  6  7  8  9  A  B  C  D  E  F
0100 :  C3 03 01 31 00 01 CD E7 22 CD 54 0B 18 0E 00 00
0110 :	00 EF FF 00 00 00 01 FB FB CD 20 30 31 00 01 CD
0120 :	24 2F 30 05 CD ED 22 18 06 CD A5 0B CD 4A 23 CD
0130 :	41 45 3E 40 32 28 4C AF 32 10 01 CD 70 23 CD C4
0140 :	01 CD 12 02 CD 68 01 CD 2B 04 CD D0 01 CD 76 02 21 AE 24 7E D6 01 36 00 47 D4 91 0D 18 E0 2A 0E 01 01 30 8D AF ED 42 C9 CD 5E 01 C0 32 14 01 3D 32 12 01 21 28 4C 35 7E 3C CA 19 01 06 C1 FE 30 F5 CC 91 0D F1 E6 01 3E C9 CC C2 4A C9 21 0F 01 3A 58 46 3D FE 06 28 27 30 1F FE 04 38 04 87 EE 02 2B 0E 01 CB 4F 20 02 0E FF 1F 38 07 ED 6F 81 ED 67 18 05 ED 67 81 ED 6F 31 00 01 C3 37 01 CD 6A 34 18 F5 3A 16 01 A7 20 FA 3E 04 32 16 01 C9 CD 2F 0B C0 06 C0 CD 91 0D CD 36 0A 3E AC CD C2 4A CD 3C 0A 38 FB 0D CA 19 01 CD 36 0A CD 92 23 21 50 4C E5 11 88 60 CD EE 1C E1 7D 67 C6 14 6F FE B5 38 EF C9 21 3C 02 A7 28 03 21 49 02 22 32 02 C9 CD 01 0B CB 7F 21 13 01 CD 62 02 CB 6F CD 61 02 CB 77 CD 61 02 4F 1F CD 0F 44 FE FF 28 2C 1F DA 49 02 79 32 11 01 32 12 01 C9 3A 11 01 A9 2F A9 E6 FE A9 32 12 01 C9 3A 11 01 A9 E6 FE A9 47 B1 B8 28 03 78 EE FE 32 12 01 C9 79 32 12 01 C9 23 CB 86 28 03 CB 8E C9 CB 4E C0 CB CE CB C6 C9 06 C4 C3 91 0D 3A 14 01 1F D0 3A AC 24 21 59 46 B6 2A 86 24 B4 B5 20 E8 2A 80 24 BC 28 E2 BD 28 DF CD 6A 03 ED 4B AB 24 30 01 71 23 1F 30 01 71 21 14 01 FD 21 B0 24 7B FE 03 28 4F 3A 85 24 A7 28 49 FD 7E 05 3C FD 96 17 FE 03 30 3E 4F FD 7E 06 3C FD 96 18 FE 03 30 32 47 FD 7E 07 D6 06 FD BE 19 20 27 1E FF CB 18 38 06 CB 18 3F CD 20 03 CB 19 38 07 CB 19 CD 20 03 18 04 CB 03 CB 03 3E 03 1C 28 12 1D FD 73 1E CB 8E C9 3E 04 AE 77 E6 04 3E 02 28 01 3D 32 84 24 CD 2F 03 CD 6A 03 38 01 23 7E 32 AB 24 3A 85 24 A7 C2 9C 45 18 64 F5 CB 13 F1 3F CB 13 C9 FD 21 B0 24 3A 84 24 FD 36 0A 00 FD CB 04 9E CB 47 20 04 FD 36 0A 01 FD 36 1C 00 FD CB 16 9E CB 4F 20 04 FD 36 1C 01 FD CB 1B 8E FE 03 C0 FD CB 04 DE FD CB 1B CE C9 2A 0E 01 ED 5B 10 BB A7 ED 52 C9 3A 84 24 21 17 01 5F 1F C9 AF 18 06 3E FF 21 D8 03 E5 21 28 04 11 BE 03 18 0B AF 21 57 23 E5 21 1E 04 11 C6 03 D5 22 1C 04 CD E7 03 22 C3 03 A7 21 10 BB 20 01 EB 08 CD F4 03 04 00 0E 01 CD F4 03 1D 00 A2 39 CD F4 03 19 00 92 24 CD F4 03 F0 03 40 6A C9 CD F4 03 12 00 B0 24 C9 D5 CD 3B 2B EB 01 12 00 C5 ED B0 CD E7 03 C1 D1 ED B0 2A BD 39 22 A3 39 21 AD 39 01 08 00 C3 67 24 21 84 24 CB 46 21 B0 24 C8 21 C2 24 C9 DD E1 DD 4E 00 DD 23 DD 46 00 DD 23 08 A7 28 0A DD 5E 00 DD 23 DD 56 00 18 08 DD 6E 00 DD 23 DD 66 00 DD 23 08 DD E5 C3 28 04 1A ED A0 2B 77 23 EA 1E 04 C9 ED B0 C9 3A 10 01 EE 80 32 10 01 CD 51 25 2A AB 39 18 1D E5 7E 23 66 6F E3 EB 21 0A 00 19 3A 10 01 AE FE 80 38 09 7E EE 80 77 E6 7F C4 64 37 E1 7C B5 20 DF C9 FE 03 D8 3D C9 F3 11 97 B8 21 BF AD 01 C0 47 ED B8 21 00 68 01 00 01 CD 67 24 3E C3 21 BC 04 32 38 00 22 39 00 21 00 01 32 00 00 22 01 00 ED 56 CD EB 04 01 8D 7F ED 49 21 AB 04 01 00 BC ED 49 7E 04 ED 79 05 23 0C 79 FE 10 20 F2 FB C9 3F 28 2E 8E 26 00 19 21 00 07 0F 0F 30 00 30 00 06 F5 C5 E5 21 BB 04 06 F5 ED 48 CB 19 38 03 35 20 19 D5 36 06 DD E5 FD E5 CD B0 0B FD E1 DD E1 3A 16 01 A7 28 04 3D 32 16 01 D1 E1 C1 F1 FB C9 21 00 66 7D 0F 0F 0F 0F 77 2C 20 F7 C9 3E 08 CD 2C 05 21 40 30 11 57 40 E5 D5 CD DE 1C D1 E1 65 7D C6 18 6F FE D1 38 F0 21 40 30 53 7B C6 2A 5F 30 E6 C9 CD 4A 05 23 23 23 01 03 7F 1E 01 C3 3D 05 CD 4A 05 01 10 7F 1E 01 CD 3D 05 2B 1E 04 01 00 7F ED 49 0C 7E F6 40 ED 79 23 1D 20 F4 C9 87 87 11 54 05 6F 26 00 19 C9 14 15 0C 03 14 0C 1D 03 14 18 16 03 14 00 05 03 14 16 0C 0B 14 0C 16 0B 14 06 0E 0B 14 0C 15 03 14 14 14 14 00 04 1C 0A 1C 0A 13 07 FE 08 38 08 D6 04 FE 18 38 02 D6 04 87 87 6F 26 00 29 11 30 B6 19 EB C9 21 00 67 AF 77 2C 77 2C 77 2C 77 2C 20 F6 C9 2A 98 1C 7C D6 30 4F 7D 94 1F 1F E6 07 3D 87 5F 16 00 21 D9 05 19 11 98 05 D5 5E 23 56 D5 2A 9A 1C 7D 94 08 7C D6 40 47 CD 4B 08 08 06 66 21 00 67 C9 E5 05 1E 06 69 06 C6 06 35 07 B6 07 08 4E 24 0A AE E6 0F AE 12 4E 0A 25 AE E6 F0 AE 1C 12 2C 2C 2C 2C 2C 2C 01 FF FF EB 09 EB 06 66 7A C6 08 57 38 05 08 3D 20 D6 C9 7B C6 50 5F 8A 93 D6 40 57 08 3D 20 C8 C9 08 4E 24 0A AE E6 0F AE 12 4E 0A 25 AE E6 F0 AE 1C 12 2C 13 4E 24 0A AE E6 0F AE 12 4E 0A 25 AE E6 F0 AE 1C 12 2C 2C 2C 2C 2C 01 FD FF EB 09 EB 06 66 7A C6 08 57 38 05 08 3D 20 C4 C9 7B C6 50 5F 8A 93 D6 40 57 08 3D 20 B6 C9 08 4E 24 0A AE E6 0F AE 12 4E 0A 25 AE E6 F0 AE 1C 12 2C 13 4E 24 0A AE E6 0F AE 12 4E 0A 25 AE E6 F0 AE 1C 12 2C 13 4E 24 0A AE E6 0F AE 12 4E 0A 25 AE E6 F0 AE 1C 12 2C 2C 2C 2C 01 FB FF EB 09 EB 06 66 7A C6 08 57 38 05 08 3D 20 B2 C9 7B C6 50 5F 8A 93 D6 40 57 08 3D 20 A4 C9 08 4E 24 0A AE E6 0F AE 12 4E 0A 25 AE E6 F0 AE 1C 12 2C 13 4E 24 0A AE E6 0F AE 12 4E 0A 25 AE E6 F0 AE 1C 12 2C 13 4E 24 0A AE E6 0F AE 12 4E 0A 25 AE E6 F0 AE 1C 12 2C 13 4E 24 0A AE E6 0F AE 12 4E 0A 25 AE E6 F0 AE 1C 12 2C 2C 2C 01 F9 FF EB 09 EB 06 66 7A C6 08 57 38 05 08 3D 20 A0 C9 7B C6 50 5F 8A 93 D6 40 57 08 3D 20 92 C9 08 4E 24 0A AE E6 0F AE 12 4E 0A 25 AE E6 F0 AE 1C 12 2C 13 4E 24 0A AE E6 0F AE 12 4E 0A 25 AE E6 F0 AE 1C 12 2C 13 4E 24 0A AE E6 0F AE 12 4E 0A 25 AE E6 F0 AE 1C 12 2C 13 4E 24 0A AE E6 0F AE 12 4E 0A 25 AE E6 F0 AE 1C 12 2C 13 4E 24 0A AE E6 0F AE 12 4E 0A 25 AE E6 F0 AE 1C 12 2C 2C 01 F7 FF EB 09 EB 06 66 7A C6 08 57 38 05 08 3D 20 8E C9 7B C6 50 5F 8A 93 D6 40 57 08 3D 20 80 C9 08 4E 24 0A AE E6 0F AE 12 4E 0A 25 AE E6 F0 AE 1C 12 2C 13 4E 24 0A AE E6 0F AE 12 4E 0A 25 AE E6 F0 AE 1C 12 2C 13 4E 24 0A AE E6 0F AE 12 4E 0A 25 AE E6 F0 AE 1C 12 2C 13 4E 24 0A AE E6 0F AE 12 4E 0A 25 AE E6 F0 AE 1C 12 2C 13 4E 24 0A AE E6 0F AE 12 4E 0A 25 AE E6 F0 AE 1C 12 2C 13 4E 24 0A AE E6 0F AE 12 4E 0A 25 AE E6 F0 AE 1C 12 2C 01 F5 FF EB 09 EB 06 66 7A C6 08 57 38 06 08 3D C2 B6 07 C9 7B C6 50 5F 8A 93 D6 40 57 08 3D C2 B6 07 C9 78 E6 F8 5F 0F 0F 83 87 CB 10 87 CB 10 87 CB 10 CB 39 81 5F 88 93 F6 C0 57 C9 1E 03 21 00 C0 01 00 40 55 7E 1F E6 77 CB 1A 30 02 F6 08 CB 5A 28 02 F6 80 56 A2 77 23 0B 78 B1 20 E7 51 01 00 40 2B 7E 17 E6 EE CB 12 30 02 F6 10 CB 62 28 02 F6 01 56 A2 77 0B 78 B1 20 E7 1D 20 C0 21 00 C0 01 00 40 C3 67 24 D5 F5 3E F8 32 CD 05 50 78 84 5F ED 53 9A 1C 79 41 85 4F ED 43 98 1C 7D 0F 0F E6 07 4F F1 11 00 67 FE 03 3F 38 05 FE 01 20 01 14 7C 08 21 00 68 CD 9B 05 08 EB D1 08 41 1A 77 08 30 05 24 08 77 08 25 08 2C 13 10 F1 3E 06 91 85 6F 08 3D 20 E6 CD A7 05 3E 40 32 CD 05 C9 FF 52 45 54 55 52 4E FF 83 4C 4F 43 4B FF 83 45 53 43 FF 83 54 41 42 FF 83 44 45 4C FF 83 43 54 52 4C FF 83 43 4F 50 59 FF 83 43 4C 52 FF 81 4A 4F 59 FF E8 46 FF E8 55 FF E8 44 FF E8 52 FF E8 4C FF 83 53 50 41 43 45 FF 5E 60 5F 39 36 33 8C 2E 61 E6 37 38 35 31 32 30 E7 5B 8C 5D 34 8D 5C E5 5E 2D 40 50 3B 3A 2F 2E 30 39 4F 49 4C 4B 4D 2C 38 37 55 59 48 4A 4E EE 36 35 52 54 47 46 42 56 34 33 45 57 53 44 43 58 31 32 E2 51 E3 41 E1 5A EA EB ED EC E9 E9 58 E4 FF FD FB FE FF 1F EF F7 FE FF FF FF FD 1F EF F3 FF FF FF FF FF FF EF FF FF FF FF FF FF FF FF FF FF FF FF FF FF FF FF FF FF FF FF FF 7F 7F FF FF FF FF FF FF FF FF FF FF FF FF FF FF FF FF FF FF FF FF FF FF FF FF FF FF FB F7 FD FE EF FF FF FF 21 C0 6F CD 3F 0B 0E 40 06 F6 ED 49 06 F4 ED 78 3C 20 0E 23 0C 79 E6 0F FE 0A 38 EC CD 54 0B 3C C9 3D 01 7F FF CB 01 04 1F 38 FA 7D D6 C0 87 87 87 80 47 D9 CD 54 0B D9 AF C9 78 C6 52 6F CE 09 95 67 7E C9 CD F2 09 28 FB C9 CD F2 09 37 C0 78 0E 00 FE 12 C8 0C FE 15 C8 0C AF C9 11 A2 09 6F 26 00 19 C9 CD 4E 0A 0E 00 7E 06 FF FE FF 28 16 04 37 1F 38 FB E5 F5 79 80 C5 47 CD 2C 0A CD EC 0A C1 F1 E1 18 E6 11 08 00 19 79 C6 08 4F FE 50 38 D7 C9 CD 4E 0A E5 CD 36 0A 21 C0 6F 1E FF 01 0A 00 CD 69 24 CD F2 09 20 FB 78 FE 12 28 23 79 A6 BE 77 28 F0 CD 2C 0A CD EC 0A 2A BE 4A E5 3E A5 CD C2 4A CD 36 0A E1 22 BE 4A 3E C0 95 FE 14 30 D3 D9 21 C0 6F 3E FF 06 0A BE 23 20 07 10 FA D9 3E 12 18 CA E1 01 08 00 3E 0A 11 C0 6F 08 1A 77 13 09 08 3D 20 F7 C3 36 0A F5 78 FE 14 28 06 FE 10 3E 82 30 02 3E 83 CD C2 4A F1 C3 C2 4A CD 3F 0B 0E 40 3E FF 21 A2 09 08 06 F6 ED 49 06 F4 ED 58 06 08 7E B3 FE FF 3F CB 12 23 10 F6 08 A2 08 0C 79 FE 4A 38 E3 08 0F 0F 0F 18 25 CD 3F 0B 01 48 F6 ED 49 06 F4 ED 78 E6 04 18 15 F3 01 0E F4 ED 49 01 00 F6 3E C0 ED 79 ED 49 04 3E 92 ED 79 C9 01 82 F7 ED 49 01 00 F6 ED 49 FB C9 21 A2 10 16 00 5E 23 CD 71 0B 14 7A FE 0B 20 F5 C9 06 F4 ED 51 01 00 F6 3E C0 ED 79 ED 49 3E 80 06 F4 ED 59 06 F6 ED 79 ED 49 C9 EE 0E 18 0E 4D 0D 8E 0C DA 0B 2F 0B 8F 0A F7 09 68 09 E1 08 61 08 E9 07 77 07 3A 50 10 FE 80 C8 06 C3 C3 91 0D 3A 54 10 17 D0 CD 53 0C AF 32 53 10 3E 3F 32 A9 10 21 53 10 46 CD 69 0C 38 53 CD 9B 0E E5 DD E1 CB 6E 20 49 FD 21 A2 10 5F 16 00 D5 CB 23 FD 19 21 AA 10 D1 19 DD 7E 08 FD 77 00 DD 7E 09 FD 77 01 42 DD 5E 01 DD 56 02 EB DD 4E 03 09 EB 1A E6 0F 28 09 DD 86 0B FE 10 38 02 3E 0F 77 3A 53 10 47 04 3E FF A7 17 10 FD 21 A9 10 A6 77 21 53 10 3E 02 BE CA 29 0C 34 18 9B 21 61 10 3E 08 AE E6 28 C2 60 0B 3A 54 10 1F DA 60 0B 21 A8 10 FD 21 9A 10 FD 7E 07 77 23 FD 7E 00 E6 01 B6 E6 F7 77 C3 60 0B AF 32 53 10 47 CD 69 0C D4 71 0C 21 53 10 7E FE 02 C8 3C 77 18 EE 3A 54 10 04 0F 10 FD C9 21 53 10 6E 11 5B 10 26 00 29 19 22 4E 10 5E 23 56 D5 DD E1 CD 9B 0E E5 FD E1 CB 4E C2 33 0E FD 35 0D 20 13 CD 74 0E FD CB 00 5E C8 FD 21 9A 10 AF FD 77 03 C3 2A 0D FD 35 04 CC 46 0D FD 6E 08 FD 66 09 FD CB 00 7E 28 2B 3E 01 FD CB 0C 7E 28 02 3E FF FD 86 0F FD 77 0F 47 FD 7E 0C B8 20 07 ED 44 FD 77 0C ED 44 FD 5E 0E 16 00 07 38 04 ED 52 18 01 19 FD 7E 00 E6 50 FE 40 20 29 FD 5E 11 FD 56 12 19 54 5D FD 4E 06 FD 46 07 AF ED 42 17 FD AE 00 E6 01 EB 20 0E FD CB 00 E6 AF FD 77 0F FD 6E 06 FD 66 07 FD 75 08 FD 74 09 FD CB 00 5E C8 FD 21 9A 10 FD 35 04 C0 CD 46 0D A7 20 04 FD B6 03 C0 7E E6 0F FD CB 00 7E 28 02 ED 44 FD 86 06 FD 77 07 C9 FD 6E 01 FD 66 02 FD 5E 03 AF 57 19 CB 7E 20 1D CB 76 28 13 FD CB 00 56 FD CB 00 D6 28 0C FD CB 00 96 FD 77 03 18 03 FD 34 03 FD 7E 05 FD 77 04 C9 21 50 10 3A 53 10 5F 16 00 19 36 FF 47 04 21 54 10 AF 37 17 10 FD 47 B6 77 C9 78 E6 3F FE 3F 20 02 3E FF 4F 78 07 07 E6 03 47 FE 03 28 46 21 50 10 58 16 00 19 7E B9 C8 FE 80 C8 71 79 3C 28 CD 21 4C 12 CB 23 19 7E 23 66 6F 59 CB 23 19 7E 23 66 6F E5 21 55 10 58 CB 23 19 E5 78 CD 9E 0E 54 5D 47 CD 84 0D 78 E1 C1 71 23 70 EB CB CE 21 54 10 AE 77 C9 26 00 69 29 54 5D 29 19 11 11 11 19 3E 03 5E 23 56 23 D5 E5 3D CD 9E 0E D1 E5 EB A7 20 F0 21 54 10 3E 07 B6 77 21 50 10 01 80 03 78 71 23 10 FC 21 55 10 D1 C1 71 23 70 23 EB CB CE EB 3D 20 F3 21 54 10 3E F8 A6 77 C9 CD 4C 0E 01 03 02 CD 84 0F FD 72 0A FD 73 0B DD 23 CD 93 0F DD 23 C3 74 0E 2A 4E 10 11 FA FF 19 5E 23 56 D5 DD E1 C9 CD 4C 0E DD 23 18 0E DD 23 DD BE 00 28 F2 3D DD BE 00 CA 77 0D CD 93 0F DD 23 FD CB 00 A6 DD 7E 00 3C CA 61 0E 01 07 03 CD 84 0F 4A 21 B0 10 16 00 19 7E FD 77 0D AF B9 20 17 FD CB 00 EE C3 70 0F 3A 53 10 21 61 10 A7 C8 11 13 00 47 19 10 FD C9 FD CB 00 AE FD 7E 0A 81 01 0C FF 04 91 30 FC 81 87 5F 16 00 21 8B 0B 19 5E 23 56 23 4E 23 7E 04 18 08 CB 3F CB 19 CB 3A CB 1B 10 F6 47 FD 7E 00 E6 42 FE 40 20 08 FD 73 06 FD 72 07 18 06 FD 73 08 FD 72 09 FD CB 00 7E 28 27 EB A7 ED 42 CB 3D CB 3D FD 7E 10 A7 28 12 67 7D FA 10 0F CB 0C 38 08 87 18 F9 1F CB 0C 30 FB 6F FD 75 0E AF FD 77 0F FD 7E 00 CB 77 28 43 CB 4F 28 06 FD CB 00 E6 18 39 FD 6E 06 FD 66 07 FD 5E 08 FD 56 09 FD CB 00 1E AF ED 52 FD CB 00 16 FD 4E 0D 1E 80 06 08 7B A1 20 04 CB 0B 10 F8 0F 38 06 CB 2C CB 1D 18 F7 FD 75 11 FD 74 12 FD CB 00 A6 FD 36 03 00 FD 7E 05 FD 77 04 FD CB 00 8E DD E5 D1 13 2A 4E 10 73 23 72 C9 01 0F 04 18 03 DD 56 00 7A A1 5F 79 2F A2 57 CB 0A 10 FC C9 01 0F 04 CD 84 0F 3E 02 FD A6 00 FD 77 00 CB 52 28 04 FD CB 00 F6 3E 03 A2 28 2E D5 3D 21 AD 10 5F 16 00 19 56 CD 7F 0F FD 73 0C 7A BB 3E 00 28 10 30 05 7A 53 5F 3E 80 CB 1B 38 04 CB 0A 18 F8 B2 FD 77 10 FD CB 00 FE D1 21 BE 10 16 00 19 56 CD 7F 0F FD 72 05 FD 72 04 CD 3F 10 3A 53 10 A7 20 04 FD CB 00 9E DD CB 00 7E C8 DD 23 A7 C0 FD CB 00 DE FD E5 FD 21 9A 10 DD 5E 00 3E C0 A3 07 FD 77 00 3E 0F A3 5F 21 B8 10 CB 03 16 00 19 56 CD 7F 0F FD 72 04 FD 72 05 23 7E FD 77 06 CD 3F 10 86 FD 77 07 AF FD 77 03 FD E1 C9 21 CE 10 16 00 19 5E 19 FD 75 01 FD 74 02 C9 00 00 FF FF FF 00 C7 00 00 00 00 00 00 00 00 00 00 00 00 00 00 00 00 00 00 00 00 00 00 00 00 00 00 00 00 00 00 00 00 00 00 00 00 00 00 00 00 00 00 00 00 00 00 00 00 00 00 00 00 00 00 00 00 00 00 00 00 00 00 00 00 00 00 00 00 00 00 00 00 00 00 00 00 00 00 00 00 00 00 00 00 3F 00 00 00 81 42 48 01 02 04 06 08 0C 10 20 12 14 10 0C 36 00 22 10 42 11 24 12 41 16 25 13 34 17 26 44 29 18 10 09 0F 10 12 1D 20 2A 2C 2E 04 05 07 09 0A 0B 8C 0C 08 04 01 80 08 00 0C 00 07 00 04 00 02 00 01 80 0C 0A 08 45 02 00 00 04 00 00 06 00 00 09 00 0C 00 40 08 0A 0C 0C 0B 0A 09 08 07 06 05 04 03 02 81 4A 13 4A 13 4A 13 BE 13 D2 13 E7 13 FC 13 18 14 34 14 91 11 F4 11 28 12 34 12 3C 12 44 12 42 14 55 14 66 14 88 11 7B 11 69 11 47 11 51 11 5E 11 77 14 81 14 8E 14 A0 7C 30 3E FF 7B 5E FE FF FF B8 7C 31 3E FF 7B 5E CE FF 52 AE FF FF C3 7C 30 3E FF FB 44 5E CE FF FF 93 00 95 6A 62 6A 7D 6D FF 82 C0 15 FF 03 8D 96 FF FF 90 23 F5 CA C2 CA DD CD 05 5D 6E FF FF 60 03 07 06 05 A5 B6 FF FF 90 41 31 91 95 97 84 94 FF 22 96 06 CE 06 FF 41 51 B1 B5 B7 A4 B4 FF 22 B6 06 CE 06 FF 41 59 B9 BD BF AC BC FF 22 BE 06 F6 06 FF 41 31 91 95 97 84 94 FF 22 96 06 CE 06 FF 41 CA CD CF BC CC FF 22 CE 06 EE 06 FF 41 C9 F1 F3 03 C9 F1 F3 03 07 C9 F1 F3 03 FF 55 F2 CA EA DA B2 CA BA 92 B2 A4 6A FF 00 62 08 36 56 6E 7E 86 7E 6E 56 36 56 6E 7E 86 7E 6E 56 5E 7E 96 A6 AE A6 96 7E 36 56 6E 7E 86 7E 6E 56 6E 8E A6 B6 BE B6 A6 8E 96 7E 6E 56 6E 7E 86 8E FF 00 93 05 34 94 54 B4 6C CC 7C DC FF 00 60 51 32 B5 55 32 FF FF C0 51 92 CD 95 92 FF FF 60 51 92 6D 95 92 FF FF 76 12 64 12 52 12 4E 13 64 13 74 13 88 13 94 13 A2 13 A7 13 AC 13 B7 13 82 12 8F 12 A2 12 C5 12 E1 12 F0 12 04 13 13 13 1C 13 47 13 41 13 5C 13 30 13 25 13 3A 13 C0 0E 34 4E 5C 6C 74 6C 5E 44 26 FF FF D0 0E 6E 96 6E 56 FF 01 34 36 FF 0E 7C 6C 54 6E 47 FF FF C3 03 94 8C 94 8C FF 26 76 FF 61 6A 72 8A FF 22 8A FF 03 94 8C 74 8C 94 AC A4 94 FF 26 8F FF 22 80 FF FF 60 02 6C 96 04 96 8C 96 94 96 FF 0F 8C FF 01 AA FF 41 B2 FF 22 B4 FF 02 04 96 FF FF A8 0F 35 35 55 6D 6E 04 55 56 04 35 36 FF FF 90 0E 0C 36 24 35 45 4E 44 4D 35 26 34 25 0D FF 0E 27 FF FF 40 02 36 0C 24 36 0C 24 34 4C 0C 4C 36 FF FF F0 67 10 F6 06 16 07 FF FF 27 50 51 BB FF 5D 97 FF FF 03 CA 44 F0 0F FF 8C 01 0C FF FF A0 40 30 6C 31 6C 41 6C FF FF B3 47 10 43 00 FF FF 00 86 82 12 FF FF 03 86 41 11 03 FF FF D3 29 31 51 01 41 29 01 31 19 01 29 41 01 FF 00 F3 EB E3 DB FF FF D3 09 31 51 00 41 29 00 31 19 00 29 41 00 FF 00 D3 09 F3 EB E3 DB EB E3 DB D3 E3 DB D3 CB DB D3 CB C3 FF 00 D3 09 BB A3 8B 73 5B 43 2B 23 FF 00 D3 09 13 33 53 73 93 B3 D3 DB E3 EE FF 00 78 05 33 FF FF 60 25 33 FF FF D3 60 34 6A FF 09 01 BA BA FF FF 90 44 10 43 00 FF FF 90 41 0C 36 FF 02 35 35 35 45 35 45 FF 41 56 FF 21 57 FF FF 90 41 0C 6E FF 02 6D 6D 6D 7D 6D 7D FF 41 D5 FF 21 D2 D7 FF FF 90 41 0C E6 FF 02 B5 B5 B5 C5 B5 C5 FF 41 8D FF 21 8A 8F FF FF 63 02 B2 BA CC 34 34 6A 5A 52 6A 92 8A 94 C2 CA DC 44 44 A2 92 8A 92 8A 7A 6E FF FF C0 03 92 8A 94 34 54 6A 5A 52 6A 92 8A 94 8A 92 A4 44 64 A2 92 8A 92 8A 7A 6D FF FF 30 02 04 36 0E 56 36 46 1E 64 54 47 FF FF 33 43 09 33 FF 08 36 56 5E 66 6C 0C 04 FF 02 32 37 FF FF F0 08 04 96 86 7E 76 6C 06 FF 41 94 FF 3E 97 FF FF C0 22 04 96 86 7E 76 6C 06 FF 41 6C FF 2E 6F FF FF A0 7B F0 A6 5E FF 7C 3E FF FF B8 7B C0 A6 5E FF 7C 3E FF 52 27 FF FF C3 FC 02 C0 A6 5E FF FB 44 3E FF FF D9 0A A6 EB B6 02 04 0A B6 EB A6 02 05 23 13 79 C6 06 4F 23 13 23 13 D9 10 E6 C9 D9 0A A6 EB B6 02 04 0A B6 EB A6 02 05 0C 23 13 0A A6 EB B6 02 04 0A B6 EB A6 02 05 23 13 79 C6 05 4F 23 13 D9 10 D9 C9 D9 0A A6 EB B6 02 04 0A B6 EB A6 02 05 0C 23 13 0A A6 EB B6 02 04 0A B6 EB A6 02 05 0C 23 13 0A A6 EB B6 02 04 0A B6 EB A6 02 05 23 13 79 C6 04 4F D9 10 CC C9 D9 0A A6 EB B6 02 04 0A B6 EB A6 02 05 23 13 79 C6 06 4F 23 13 23 13 23 13 D9 10 E4 C9 D9 0A A6 EB B6 02 04 0A B6 EB A6 02 05 0C 23 13 0A A6 EB B6 02 04 0A B6 EB A6 02 05 23 13 79 C6 05 4F 23 13 23 13 D9 10 D7 C9 D9 0A A6 EB B6 02 04 0A B6 EB A6 02 05 0C 23 13 0A A6 EB B6 02 04 0A B6 EB A6 02 05 0C 23 13 0A A6 EB B6 02 04 0A B6 EB A6 02 05 23 13 79 C6 04 4F 23 13 D9 10 CA C9 D9 0A A6 EB B6 02 04 0A B6 EB A6 02 05 0C 23 13 0A A6 EB B6 02 04 0A B6 EB A6 02 05 0C 23 13 0A A6 EB B6 02 04 0A B6 EB A6 02 05 0C 23 13 0A A6 EB B6 02 04 0A B6 EB A6 02 05 23 13 0C 0C 0C D9 10 BE C9 D9 0A A6 EB B6 02 04 0A B6 EB A6 02 05 23 13 79 C6 06 4F 23 13 23 13 23 13 23 13 D9 10 E2 C9 D9 0A A6 EB B6 02 04 0A B6 EB A6 02 05 0C 23 13 0A A6 EB B6 02 04 0A B6 EB A6 02 05 23 13 79 C6 05 4F 23 13 23 13 23 13 D9 10 D5 C9 D9 0A A6 EB B6 02 04 0A B6 EB A6 02 05 0C 23 13 0A A6 EB B6 02 04 0A B6 EB A6 02 05 0C 23 13 0A A6 EB B6 02 04 0A B6 EB A6 02 05 23 13 79 C6 04 4F 23 13 23 13 D9 10 C8 C9 D9 0A A6 EB B6 02 04 0A B6 EB A6 02 05 0C 23 13 0A A6 EB B6 02 04 0A B6 EB A6 02 05 0C 23 13 0A A6 EB B6 02 04 0A B6 EB A6 02 05 0C 23 13 0A A6 EB B6 02 04 0A B6 EB A6 02 05 23 13 0C 0C 0C 23 13 D9 10 BC C9 D9 0A A6 EB B6 02 04 0A B6 EB A6 02 05 0C 23 13 0A A6 EB B6 02 04 0A B6 EB A6 02 05 0C 23 13 0A A6 EB B6 02 04 0A B6 EB A6 02 05 0C 23 13 0A A6 EB B6 02 04 0A B6 EB A6 02 05 0C 23 13 0A A6 EB B6 02 04 0A B6 EB A6 02 05 23 13 0C 0C D9 10 B0 C9 00 D5 C5 E5 3A ED 16 CD FE 16 E1 C1 D1 C9 32 ED 16 F5 21 98 B8 01 28 01 CD 67 24 AF 32 C0 1A 3D 32 41 19 F1 A7 C8 11 BF B9 21 97 B8 01 20 00 ED B8 D6 06 28 0A 21 77 B8 01 30 00 ED B8 18 F2 21 47 B8 01 48 00 ED B8 C9 2A 98 1C 7C 1F 1F 4F E6 3E D9 6F 26 6A D9 7D 94 1F 1F E6 07 D6 02 11 00 68 CB 19 30 15 FD 21 B6 19 DD 21 67 1A 21 31 1A CD 8D 17 FE FF C8 D6 01 18 11 FD 21 C5 19 DD 21 80 1A 21 04 1A CD 8D 17 1C D6 02 30 ED 3C C0 FD 21 B6 19 DD 21 6C 1A 21 3E 1A 22 49 18 D9 18 12 22 49 18 D5 F5 D9 E5 CD 9F 17 E1 2C 2C D9 F1 D1 1C C9 ED 5B 9A 1C 7B 92 5F 7E A7 28 4C 7A 96 57 30 4A 23 0E 38 CB 56 28 02 0E 4A 81 30 0B 87 CD 2F 19 D9 7A ED 44 C3 E2 17 ED 44 BB 30 2B 47 ED 44 83 5F 78 CD B4 19 7E D9 CD 7D 19 D9 3E 38 CB 56 28 02 3E 4A BB 30 0E 47 ED 44 83 08 78 CD B2 19 08 16 00 18 08 7B DD E9 7B FD E9 7B 23 47 2B 7D 87 87 C6 04 FE 00 38 0C 1E 00 20 02 1E 05 D6 04 C6 00 18 08 C6 04 ED 44 C6 00 1E 08 ED 44 C6 0B 4F 7B 32 6E 18 7E 82 23 91 30 18 C6 0B 30 17 5F D6 0B 80 38 03 78 18 2D F5 90 ED 44 CD 63 18 F1 C8 FD E9 78 FD E9 80 38 04 78 C3 00 00 F5 90 ED 44 CD 48 18 F1 C8 D6 0B 1E 00 30 04 C6 0B 18 05 F5 3E 0B 18 D7 D5 D9 E1 26 00 29 29 01 7B 18 18 08 01 A7 18 18 03 01 D3 18 09 D9 DD E9 00 40 00 00 00 70 00 00 04 74 00 00 07 77 00 00 07 37 00 40 07 07 00 70 03 03 04 74 00 00 07 77 00 00 07 37 00 00 07 07 00 00 03 03 00 00 03 03 00 00 0F 0F 00 00 1F 1F 00 00 5F 1F 03 03 5C 1C 0F 0F 50 10 1F 1F 40 00 5F 1F 00 00 5C 1C 00 00 50 10 00 00 40 00 00 00 00 40 03 03 00 70 0F 0F 04 74 1F 1F 07 77 5F 1F 07 37 5C 1C 07 07 50 10 03 03 40 00 00 00 00 00 00 00 00 00 00 00 00 00 00 00 00 00 2A E8 19 01 0A 00 09 0E 10 3A C1 1E 1F E5 30 02 09 E3 09 1F 30 03 A7 ED 42 11 A7 18 CD 23 19 E1 23 11 7D 18 3E 04 ED A0 23 13 13 13 3D 20 F7 C9 F5 7E D9 CD 7D 19 F1 87 F5 85 6F 8C 95 67 F1 D0 24 C9 00 3A 41 19 A7 21 98 B8 C8 E5 C5 D5 01 28 01 CD 67 24 D1 C1 E1 AF 32 41 19 C9 CB 47 20 E3 6F 3A 41 19 A7 CC EE 16 3A C0 1A AD 17 21 98 B8 D0 3A C0 1A EE 80 32 C0 1A 06 4A C3 9C 1A CB 57 20 DA F5 CD 8F 19 08 F1 CD C1 1A 08 D0 C3 9A 1A 4F 2A 44 3C E6 03 47 04 3E 01 0F 10 FD 47 A6 20 08 CB 11 D0 78 B6 77 37 C9 CB 11 3F D0 78 2F A6 77 37 C9 DD E9 FD E9 D9 47 EB 1E 00 73 7D C6 06 6F 10 F9 EB D9 C9 D9 47 EB 1E 00 73 2C 73 7D C6 05 6F 10 F7 EB D9 C9 4F 87 81 87 87 87 6F 26 00 29 11 B0 B4 19 22 E8 19 C9 E0 B4 F5 D9 7E F6 FA 3C D9 28 0C 79 ED 4B E8 19 81 4F 88 91 47 F1 C9 01 00 B6 F1 C9 47 7A CB 7E D9 0E 00 28 02 0E 10 CD EA 19 E6 0F 87 26 00 6F D9 D9 E5 09 7E 12 23 1C 7E 12 7B C6 05 5F E1 7D C6 02 E6 1F 6F D9 10 E9 C9 47 7A CB 7E D9 0E 01 28 0F 0E 11 18 0B 47 7A CB 7E D9 0E 00 28 02 0E 10 CD EA 19 E6 0F 87 26 00 6F D9 D9 E5 09 7E 12 7B C6 06 5F E1 7D C6 02 E6 1F 6F D9 10 ED C9 D9 23 23 18 01 D9 47 7E 12 23 15 7E 12 14 23 23 23 7B C6 06 5F 10 F0 D9 C9 D9 47 7E 12 23 15 7E 12 23 4E 23 1C 7E 12 23 14 79 12 7B C6 05 5F 10 EA D9 C9 06 38 D5 16 69 E5 22 B8 1A 5E 1A 23 5E 22 B3 1A 23 4E 77 23 1A 5E 77 1A 32 00 00 59 1A 32 00 00 23 10 E3 E1 D1 C9 00 E6 03 87 87 4F 87 87 87 91 87 6F 26 00 29 29 ED 4B 42 3C 09 C9 3D 87 D9 4F 06 00 3A 37 35 3C 32 37 35 FE 05 21 1C 1B 20 03 21 22 1B 09 7E 23 66 6F 22 06 1B 22 11 1B D9 08 F5 3A 9D 1C D5 11 C0 6F 06 00 F3 CD 00 00 EB E1 D5 3A 9D 1C 06 FF CD 00 00 21 C0 6F D1 FB F1 3C 08 C9 2A 1B E0 1B 85 1B 03 1C 71 1C 3A 1C 00 00 ED 73 28 1B 0E 3E ED 43 49 1B ED 43 63 1B F9 EB CB 3F 30 08 3C 08 C1 41 3B C3 62 1B 08 D1 C1 3E 00 0F CB 1B CB 1A CB 19 1F CB 1B CB 1A CB 19 1F 73 23 72 23 71 23 77 23 D1 3E 00 0F CB 18 CB 1B CB 1A 1F CB 18 CB 1B CB 1A 1F 70 23 73 23 72 23 77 23 08 3D 20 C6 ED 7B 28 1B C9 ED 73 28 1B 0E 3E ED 43 A4 1B ED 43 BE 1B F9 EB CB 3F 30 08 3C 08 C1 41 3B C3 BD 1B 08 D1 C1 3E 00 07 CB 11 CB 12 CB 13 17 CB 11 CB 12 CB 13 17 77 23 73 23 72 23 71 23 D1 3E 00 07 CB 12 CB 13 CB 10 17 CB 12 CB 13 CB 10 17 77 23 70 23 73 23 72 23 08 3D 20 C6 ED 7B 28 1B C9 48 47 79 C5 0E FF D5 ED A0 ED A0 ED A0 12 13 10 F6 E1 C1 79 ED 67 23 ED 67 23 ED 67 23 ED 67 23 10 F2 C9 ED 73 28 1B 0E 3E ED 43 12 1C F9 EB 08 D1 C1 3E 00 0F CB 1B CB 1A CB 19 CB 18 1F CB 1B CB 1A CB 19 CB 18 1F 73 23 72 23 71 23 70 23 77 23 08 3D 20 DA ED 7B 28 1B C9 ED 73 28 1B 0E 3E ED 43 49 1C F9 EB 08 D1 C1 3E 00 07 CB 10 CB 11 CB 12 CB 13 17 CB 10 CB 11 CB 12 CB 13 17 77 23 73 23 72 23 71 23 70 23 08 3D 20 DA ED 7B 28 1B C9 48 47 79 C5 0E FF D5 ED A0 ED A0 ED A0 ED A0 12 13 10 F4 E1 C1 ED 67 23 ED 67 23 ED 67 23 ED 67 23 ED 67 23 10 EF C9 66 60 70 50 00 00 00 00 00 00 00 23 23 CD 1E 1E ED 43 9E 1C 22 A0 1C C9 23 23 CD 1E 1E ED 5B A0 1C 7C BA 30 01 54 7B BD 30 01 5D 2A 9E 1C 78 BC 30 01 60 7D B9 D0 69 C9 7D C6 03 E6 FC 6F 7C E6 FC 67 22 98 1C C9 CD D0 1C 18 12 3E 40 BB D0 16 40 18 11 CD B0 1C CD D0 1C 7B FE F1 D0 7A BB D0 FE 40 38 E7 ED 53 9A 1C CD 35 17 3A C0 1E E6 0C 28 45 5F E6 08 28 23 ED 4B 98 1C 21 48 3C 78 BE 30 18 3A 9B 1C 80 1F 57 3A 46 3C BA 38 0C 21 AD 39 D5 CD 64 1D D1 CB 53 28 1D ED 4B 98 1C 3A 48 3C B9 30 13 3A 9B 1C 91 3F 1F 57 3A 47 3C BA 38 06 21 B1 39 CD 64 1D 21 B5 39 CD 64 1D 21 A9 39 CD 64 1D 21 B9 39 CD 64 1D C3 A7 05 7E 23 66 6F B4 C8 22 71 1D CD 75 1D 21 00 00 18 EF CD 03 1E D0 32 9D 1C 7C 87 84 87 D9 CB 3C CB 3C 84 5F 16 67 D5 E5 D9 7D ED 44 47 3A 37 35 E6 04 78 20 04 87 80 18 02 87 87 F5 CD B3 35 C1 48 06 00 09 EB 09 3A 9C 1C E6 03 C4 D6 1A C1 79 ED 44 C6 03 0F 0F E6 07 4F 06 00 09 EB 09 C1 D9 3A 37 35 D6 03 87 5F 16 00 21 E5 1D 19 5E 23 56 08 3D 1F E6 0E 6F 26 00 19 7E 23 66 6F 3A 9D 1C 47 E9 EB 1D F1 1D F9 1D 9A 14 B5 14 DD 14 12 15 2F 15 59 15 90 15 D3 15 F2 15 1E 16 57 16 9C 16 CD 36 1E 78 32 9C 1C E5 ED 5B 98 1C CD 52 1E D9 C1 D0 08 ED 5B 9A 1C CD 52 1E C9 23 23 7E CB 5F 28 14 CD 39 1E 3A A2 1C CB 6F 3E F0 28 02 3E F4 84 67 C9 23 23 7E CB 67 3E 00 28 02 3E 80 08 23 CD 77 1E 23 23 7E 32 A2 1C 2B 08 AE C3 4A 35 7A 91 D0 78 93 D0 ED 44 6F 78 92 38 0B 67 79 90 4D 2E 00 B9 D8 79 37 C9 6F 79 92 4F 7B 92 B9 26 00 D8 79 37 C9 7E 57 23 5E 93 C6 80 4F 23 7E 87 93 92 C6 7F 47 C9 8A 1E 00 00 00 00 00 00 00 00 00 00 00 00 00 00 00 00 00 00 00 00 00 00 00 00 00 FF FF 00 00 00 00 00 00 0E CD 05 00 00 00 27 26 17 15 05 04 36 34 00 00 00 00 00 00 00 00 00 3A 8A 40 32 85 40 47 C9 F5 11 2C 41 08 08 48 48 08 10 48 40 08 18 48 38 08 20 48 30 10 08 40 48 18 08 38 48 20 08 30 48 10 10 40 40 00 00 00 00 00 00 00 00 C0 3E FF 32 BD 1E FD 21 C2 1E 21 D0 30 22 98 1C 21 FF 00 22 9A 1C 21 C0 C0 22 F2 1E 22 F4 1E 21 00 00 ED 4B 0E 01 CD B8 1F AF 32 BD 1E 32 F6 1E 2A A3 39 22 BD 39 3A BA 1E 32 B9 1E 11 EE 1E 21 F2 1E 01 04 00 ED B0 21 00 6A 01 40 00 CD 67 24 CD D0 22 CD D8 21 3E 00 17 32 BC 1E CD 4A 3C 2A C0 1E E5 7D E6 08 28 1C 3E 01 CD C1 39 ED 4B 0E 01 78 3C A8 E6 0F A8 47 3A C5 1E 67 2E 00 CD B8 1F CD D0 22 FD 21 CA 1E E1 E5 7D E6 04 28 1D 3E 02 CD C1 39 ED 4B 0E 01 78 C6 10 A8 E6 F0 A8 47 3A C4 1E 6F 26 00 CD B8 1F CD D0 22 3A F6 1E 2A AF 1E F5 CD E8 34 F1 CD FB 16 E1 22 C0 1E AF C3 C1 39 22 8A 1E AF 32 8C 1E C5 CD EF 21 06 03 CD B2 22 32 BA 1E 87 87 C6 CE 6F CE 1E 95 67 06 02 DD 21 8A 1E 4E DD 7E 00 A7 28 0B 91 5F 1F 1F 1F E6 1F DD 77 00 7B 81 FD 77 00 23 DD 23 FD 23 10 E3 06 02 DD 7E FE 87 87 87 86 FD 77 00 FD 23 DD 23 23 10 EF 06 03 CD B2 22 32 BE 1E 06 03 CD B2 22 32 BF 1E CD DE 20 06 03 CD B2 22 32 BB 1E CD D6 19 CD 7E 20 30 FB C1 C3 F7 3E CB 57 28 02 F6 F8 86 C9 08 CD 9D 22 2A 88 1E F5 78 CD 31 20 47 23 79 CD 31 20 4F 23 F1 D6 07 86 23 22 88 1E 70 23 71 23 77 3A AD 1E 2A AB 1E F5 E5 CD C6 21 22 AB 1E CD 7E 20 30 FB 2A 88 1E 2B 2B 2B 22 88 1E E1 F1 22 AB 1E 32 AD 1E 06 08 CD B2 22 FE FF 37 C8 FE C0 30 AE FD E5 FD 21 98 1E CD F5 36 FD E1 06 02 CD B2 22 CB 4F 20 04 3E 01 18 0A F5 06 01 CD B2 22 C1 07 07 B0 32 AA 1E CD 37 22 CD 6B 22 3A AA 1E 1F 30 0B 3A AE 1E 3C A7 C8 CD CC 20 18 E9 CD CC 20 A7 C9 21 98 1E 01 12 00 FD E5 3A BD 1E A7 CC F1 39 FD E1 C9 06 03 CD B2 22 CD 5D 04 87 6F 67 24 22 AF 1E DD 21 B1 1E 21 F2 1E D9 FD 7E FF C6 04 CD 5B 21 21 F3 1E D9 FD 7E FE C6 04 CD 4F 21 21 F4 1E D9 FD 7E FD D6 04 CD 5B 21 21 F5 1E D9 FD 7E FC D6 04 C3 4F 21 06 03 CD B2 22 21 C0 1E D6 02 38 17 CB 16 23 37 CB 16 D6 07 ED 44 4F 87 81 87 C6 96 32 9F 1E 37 D9 77 C9 FE FF 3F CB 16 A7 23 CB 16 A7 C9 32 9D 1E 21 9E 1E 3A 8B 1E C3 64 21 32 9E 1E 21 9D 1E 3A 8A 1E 87 87 87 F5 C6 24 77 E5 CD 21 21 30 4E DD 7E 00 32 9C 1E DD 23 3A AF 1E 32 A0 1E CD 95 21 DD 7E 00 32 9C 1E DD 23 3A B0 1E 32 A0 1E E1 F1 C6 2C 77 CD CC 20 3A 9C 1E 4F E6 30 E0 E6 10 F6 01 32 9C 1E 3A 9F 1E FE C0 C8 F5 C6 06 32 9F 1E 3E 54 32 A0 1E CD CC 20 F1 32 9F 1E C9 E1 F1 DD 23 DD 23 C9 3E 80 32 AD 1E 21 D0 50 08 16 00 5E 23 BE C8 19 18 F9 ED 4B 0E 01 79 3D E6 F0 4F CD F8 21 D8 13 13 13 1A F6 F1 3C C8 37 C9 CD F8 21 D9 79 B6 77 D9 C9 16 00 21 41 52 CD 06 22 D0 21 E6 60 18 07 D9 21 61 42 0E 01 D9 5E 1C 1D 37 C8 23 78 BE 28 0A 19 D9 CB 01 30 01 23 D9 18 EC 23 1D 7E E6 F0 B9 20 EE 2B 22 AB 1E 3E 80 32 AD 1E 06 04 C3 B2 22 3A AA 1E 1F 1F 38 05 06 01 CD B2 22 E6 01 07 07 07 07 E6 10 4F 3A 97 1E A9 32 9C 1E ED 4B 96 1E CB 67 28 0B CB 4F 28 05 EE 01 32 9C 1E 0D 0D 79 32 A8 1E C9 CD 9D 22 08 2A 88 1E 11 9D 1E 78 CD 95 22 12 79 CD 95 22 13 12 08 F5 86 6F 87 85 87 C6 96 13 12 F1 2F A1 A0 F6 F8 32 AE 1E C9 86 23 07 07 07 C6 0C C9 06 03 CD B2 22 F5 06 03 CD B2 22 F5 06 03 CD B2 22 E1 C1 4C C9 11 AD 1E 1A 2A AB 1E 4F AF CB 11 28 06 17 10 F9 EB 71 C9 23 22 AB 1E 4E 37 CB 11 C3 BF 22 2A F2 1E 7D BC 38 01 7C ED 44 C6 C0 21 F6 1E BE 38 01 77 7E C3 63 3C CD 62 04 C3 39 35 AF 32 EA 3D 32 58 46 32 94 41 3E 18 32 B8 24 3E 1F 32 CA 24 CD C6 43 CD 55 24 71 24 CD 50 3F 21 40 89 22 0E 01 3E 01 CD 22 23 21 40 8A 22 0E 01 AF 32 58 46 C9 32 84 24 F5 32 10 BB CD 9E 23 AF 32 87 24 CD 48 2B 18 03 CD 51 25 3A AC 24 A7 20 F7 F1 EE 03 32 84 24 CD 7B 27 C3 73 03 CD 55 24 71 24 3E 08 CD 2C 05 C3 85 40 CD F7 1E CD 55 24 8A 24 CD 28 03 CD F9 23 CD F8 04 AF 32 85 24 18 24 00 00 CD 9E 23 3A 86 2F A7 20 13 3A BF 1E FE 07 20 03 3A 6F 23 32 6F 23 F6 40 47 CD 91 0D CD F8 04 CD 48 2B 3A BE 1E CD 2C 05 CD 51 41 C3 9C 45 CD 55 24 86 39 CD 55 24 8A 24 3A 84 24 FE 03 20 0C 21 10 BB CB C6 CD FC 1E 3E 01 18 38 CD 5F 03 20 2F CD 76 03 CD F7 1E 21 B0 24 CD 2F 3B D9 21 C2 24 CD 2F 3B CD C6 2E 30 13 3A 84 24 1F 38 01 D9 78 C6 05 D9 B8 38 05 3E FF 32 6E 23 3E 01 18 04 CD FC 1E AF 32 85 24 C3 F9 23 2A C2 1E 3A C1 1E F5 CB 4F 28 04 25 25 25 25 1F 7D 30 03 D6 04 6F 94 C6 80 32 03 18 4F 3E FC 94 95 47 ED 44 5F 81 32 17 18 79 ED 44 83 32 0F 18 CD FF 18 F1 1F F5 D4 4A 24 F1 1F D8 21 3E 6A 7E A7 20 04 2B 2B 18 F8 23 7E F6 FA 3C C0 77 2B 77 C9 21 00 6A 7E A7 20 EF 23 23 18 F8 E1 5E 23 56 23 E5 EB 4E 06 00 23 54 5D 09 EB ED B0 C9 1E 00 73 23 0B 78 B1 20 F9 C9 09 00 00 00 00 00 08 08 00 00 00 00 00 00 00 04 04 00 00 03 01 00 00 03 02 03 00 00 FF 00 00 FF 02 00 00 00 00 03 00 00 00 00 00 00 20 28 0B C0 24 08 12 FF FF 00 00 08 00 00 0F 00 00 00 FF 00 00 00 00 08 28 0B C0 18 21 00 FF FF 00 00 00 00 00 00 00 00 00 08 28 0B C0 1F 25 00 FF FF 00 00 00 00 00 00 18 19 18 1A 00 00 1B 1C 1B 1D 00 00 1E 1F 1E 20 00 00 21 22 21 23 00 00 24 A4 A5 25 A5 A6 26 26 A6 A6 26 26 00 00 26 A6 26 A6 A5 25 24 A5 00 00 40 21 04 25 3E 80 AE 77 3A E3 70 CB 47 21 CD 8F 11 45 25 28 04 2B 11 39 25 D5 E5 CD 29 25 11 48 00 E1 19 D1 0E 06 06 02 1A AE 77 13 23 10 F9 23 0D 20 F3 C9 00 C0 01 D8 00 1C 00 84 00 10 00 20 03 00 1B 80 38 00 21 00 08 00 04 00 3A 04 25 17 DC 06 25 21 59 46 7E A7 28 0F D9 21 84 24 3A 5A 46 A6 D9 C2 A8 26 CD A8 26 21 86 24 7E A7 C2 99 26 23 B6 C2 92 26 21 88 24 35 20 17 36 03 2A 84 24 7C 87 B4 B5 1F F5 3E 02 DC 43 41 F1 1F 3E 03 DC 43 41 3E FF 32 AF 24 3A 58 46 A7 28 13 3A AC 24 A7 28 0A 3A AB 24 37 17 32 12 01 18 03 32 58 46 CD 87 27 CD 3B 2B E5 FD E1 FD 7E 07 FE 84 30 0F AF 32 8F 24 3A BC 1E A7 20 05 3E 06 32 58 46 3A 15 01 1F 30 66 3A 84 24 F6 FD 3C 21 AC 24 B6 20 57 3A 7B 24 F6 F9 3C 20 4F 3A A8 24 FE 08 20 48 21 C7 24 11 9E 24 01 03 00 ED B0 21 99 24 E5 FD E1 3A 10 01 F6 19 32 A3 24 FD 36 04 00 3A AB 24 32 A4 24 FD 36 0C FF FD 36 0F 20 CD 66 3A 3E 06 CD 43 41 06 48 CD 91 0D 3A 82 24 A7 20 0D 21 7B 24 CB 96 CD 9C 45 18 03 CD 71 02 21 58 46 7E E6 7F C8 3A 59 46 A7 28 03 36 00 C9 3A 85 24 A7 28 32 CD 3B 2B E5 FD E1 CD F1 3A 3A 84 24 FE 03 28 22 21 96 24 BE 28 05 EE 03 77 18 0B 21 31 BB 11 92 24 01 05 00 ED B0 21 00 00 22 BD 24 22 CF 24 CD 73 03 21 00 00 22 97 24 C3 8D 01 35 2A 84 24 C3 33 27 35 2A 84 24 C2 3C 27 3E 07 32 58 46 C3 B9 25 35 C2 39 27 21 00 00 22 97 24 21 80 24 ED 4B 5A 46 06 02 16 FF CB 19 30 09 7E D6 01 27 77 20 02 16 00 23 10 F0 2B 7E 2B B6 CA 19 01 7A A7 20 39 21 80 24 3A 85 24 A7 28 1E 3A 96 24 FE 03 20 0C 7E A7 3E 01 20 01 3C 32 96 24 18 1D 1F 38 01 23 7E A7 20 12 32 85 24 CD 92 02 21 00 00 22 59 46 21 10 BB CB C6 C9 CD 08 27 3A 96 24 32 84 24 CD 7B 27 CD 3B 2B 11 05 00 19 EB 21 93 24 01 03 00 ED B0 3A 92 24 32 58 46 C3 B9 01 E5 21 FA 24 18 07 2A 5A 46 E5 21 EC 24 FD 21 B0 24 CD 6F 44 E1 E5 CB 4D 28 15 F5 32 CA 24 FD CB 16 9E 21 C2 24 CD A3 1C 21 C2 24 CD EB 1C F1 E1 CB 1D D0 EE 80 32 B8 24 FD CB 04 9E 21 B0 24 CD A3 1C 21 B0 24 C3 EB 1C E6 01 07 07 21 14 01 CB 96 B6 77 C9 CD 3B 2B E5 FD E1 3E 3F 32 AD 24 3A AC 24 CD C1 39 CD 3B 2B CD A3 1C 21 8F 24 7E A7 28 53 3A AC 24 A7 28 04 36 00 18 49 35 CD 3B 2B CD 31 2E 38 0A FD 35 07 3E 84 CD 21 2B 18 11 08 3E 88 FD CB 0B 66 FD CB 0B E6 CC 21 2B 08 28 0B FD CB 0B A6 FD CB 0B EE FD 35 07 3A 84 24 E6 02 20 06 3A AB 24 C3 59 28 3A 12 01 1F CD 0F 44 3C C2 55 28 18 ED FD CB 0B E6 FD CB 0C EE CD 3B 2B 3A 58 46 A7 20 09 CD 64 2C D2 14 29 C2 02 29 3A 58 46 17 30 04 FD 36 0C FF 3E 86 FD CB 0B 6E FD CB 0B EE CC 21 2B FD CB 0C 66 FD CB 0C E6 20 18 CD 3B 2B CD 31 2E 30 09 20 07 3E 88 CD 21 2B 18 07 FD 35 07 FD CB 0B A6 AF 32 8E 24 CD 8A 2A CD 10 2A 3A 12 01 1F CD 78 29 CD 64 29 08 3A 90 24 3C 20 26 AF 21 84 24 CB 46 28 06 32 D4 24 32 DA 24 CB 4E 28 06 32 E0 24 32 E6 24 08 01 21 1B 38 38 CD F0 28 01 1F 18 18 30 08 21 D4 24 11 E0 24 30 06 21 DA 24 11 E6 24 D5 3A 84 24 1F 30 06 CD 6F 44 32 B8 24 E1 3A 84 24 E6 02 28 06 CD 6F 44 32 CA 24 FD CB 0B EE 18 18 FD CB 0B EE 3A 84 24 1F 30 03 FD 70 08 3A 84 24 E6 02 28 04 79 32 CA 24 3A AF 24 FD 77 0C CD 3B 2B CD E9 3A CD 32 2C AF CD C1 39 CD 3B 2B CD EB 1C C3 28 2B 21 05 25 35 3E 03 96 D8 28 05 FE 03 C0 36 40 C3 06 25 21 8E 24 7E A7 36 FF 28 0E CD 8A 2A CD 10 2A AF 18 05 AF 32 8E 24 3C 4F CD 0A 2A FD CB 0B AE 3A 84 24 E6 02 20 06 0D 20 1B FD 34 07 FD 34 07 A7 20 15 3E 82 CD 21 2B 21 83 24 7E A7 28 15 35 3A AB 24 18 0C FD 34 07 3E 83 CD 21 2B 3A 12 01 1F CD 78 29 CD 64 29 01 21 1B DA C0 28 01 4D 18 C3 C0 28 3A AB 24 CD 0F 44 1F FD CB 04 A6 1F 38 04 FD CB 04 E6 1F C9 F6 F0 FE FF 32 90 24 28 12 08 AF 32 90 24 3E 80 CD 21 2B 08 21 AB 24 BE 77 28 05 CD 0A 2A 3E FF F5 FD A6 0C CD 0F 44 FE FF 28 13 CD 3B 2B CD 5C 46 30 15 FD 7E 0B F6 F0 3C 3E 88 C4 21 2B F1 FD 7E 0B F6 0F FD 77 0B C9 CD 3B 2B CD 55 44 C1 21 91 24 7E A7 28 02 35 C9 21 7C 24 3A 84 24 E6 01 B6 C8 21 89 24 35 C5 20 0D 36 02 3A 84 24 1F 38 05 3E 00 CD 43 41 3E 81 CD 21 2B F1 CD 0F 44 FE FF C8 CD 3B 2B E5 CD 5C 46 E1 D2 55 44 3E 88 C3 21 2B 3E 02 32 91 24 C9 3A 84 24 47 3D 20 04 AF 32 83 24 3A AC 24 A7 C0 3A 12 01 1F D8 0E 00 FD 6E 0D FD 66 0E 7C B5 28 22 E5 DD E1 DD CB 09 46 28 07 DD 7E 0B F6 CF 3C C0 DD 7E 08 E6 7F FE 57 28 35 FE 2B 28 04 FE 2C 20 01 0C 3A 84 24 E6 02 20 09 C5 3E 01 CD 43 41 C1 28 01 0C 79 87 87 C6 04 FE 0C 20 02 3E 0A 32 8F 24 3E 85 05 20 05 21 83 24 36 07 C3 21 2B 21 0C 08 22 86 24 06 C7 C3 91 0D 3A 13 01 1F D0 3A 7B 24 1F D2 71 02 3A 84 24 E6 01 28 F6 3E 87 CD 21 2B 3A 98 24 A7 20 1B CD 3B 2B CD 02 2E 30 E3 DD 7E 08 E5 22 97 24 01 B0 D8 F5 CD F3 45 F1 E1 C3 CA 44 3A AC 24 A7 C2 71 02 FD 4E 07 06 03 CD 3B 2B C5 CD 31 2E C1 38 3D FD 35 07 FD 35 07 10 EE 2A 97 24 E5 11 07 00 19 E5 CD 3B 2B 11 06 00 19 EB E1 71 EB 1B ED A8 ED A8 E1 CD FE 44 21 00 00 22 97 24 01 B0 D8 CD 11 46 CD 3B 2B CD 64 2C CD 3B 2B C3 A3 1C FD 71 07 C3 71 02 21 AE 24 18 03 21 AD 24 BE D8 77 C9 3A AD 24 F6 80 47 FE 85 D2 91 0D 3A 86 2F A7 C0 C3 91 0D 21 84 24 CB 46 21 B0 24 C0 21 C2 24 C9 AF 32 EC 24 32 86 24 32 FA 24 3E 08 32 A8 24 CD 28 03 3A 84 24 32 96 24 CD 3B 2B E5 E5 E5 FD E1 3A 58 46 32 92 24 F5 D6 01 F5 FE 04 30 17 EE 01 5F 16 00 21 EE 1E 19 4E 21 5E 2C 19 3A C0 1E A6 20 03 FD 71 07 CD 3B 2B 11 05 00 19 EB F1 38 4A FE 06 28 2E 30 3F FE 04 30 13 21 C2 1E 0E FD 1F 30 02 13 23 1F 38 3E 0E 03 23 23 18 38 13 13 1F 3E 84 30 0A 3A 6E 23 A7 3E BA 28 02 3E B4 12 F1 18 32 13 13 3A 6E 23 A7 28 04 1A D6 06 12 06 C8 CD 91 0D 18 13 21 5E 42 18 03 21 54 2C ED A0 ED A0 ED A0 18 03 7E 81 12 F1 C6 57 6F CE 2C 95 67 7E 32 AB 24 3E 80 32 58 46 E1 11 05 00 19 11 93 24 01 03 00 ED B0 FD 36 0D 00 FD 36 0E 00 FD 36 0B FF FD 36 0C FF E1 CD 3B 3A CD 32 2C AF 32 59 46 32 5A 46 32 6E 23 C3 C1 39 3A A2 39 32 AC 24 C9 3A 84 24 21 85 24 1F B6 1F D0 2A 97 24 24 25 C8 11 08 00 19 7E 01 B0 D8 C3 F3 45 28 28 C0 FD FD FB FE F7 FD FD 08 04 02 01 00 00 CD 6E 2C FD 7E 07 91 C3 FB 2C 0E C0 3A AC 24 A7 C8 DD 21 EE 1E DD 4E 00 3A C5 1E D6 03 FD BE 06 D8 DD 4E 02 3A C3 1E C6 02 FD BE 06 D0 DD 4E 01 3A C4 1E D6 03 FD BE 05 D8 DD 4E 03 C9 FE FF 37 FD 77 0D FD 77 0E C0 FD CB 09 46 28 38 3A AC 24 A7 20 2F 3A BB 1E FE 06 28 1F FE 07 20 24 CD 3B 2B FD E5 D1 A7 ED 52 28 09 21 14 01 7E F6 03 77 18 10 3E 05 32 58 46 A7 C9 FD 4E 09 FD 46 04 CD 38 47 AF 37 C9 3A BB 1E FE 07 20 F6 FD 36 0A 22 18 F0 FD 7E 07 D6 C0 01 00 00 ED 43 62 2C 28 9F 3C 28 9A CD 24 3B 48 0C D9 FD 7E 0E A7 28 41 67 FD 6E 0D E5 DD E1 DD CB 04 7E 20 34 DD 7E 07 D6 06 D9 B8 D9 20 2A CD C3 2E 30 25 DD CB 09 4E 28 09 DD CB FA AE DD 7E F9 18 07 DD CB 0C AE DD 7E 0B F6 E0 4F FD 7E 0C A1 FD 77 0C AF 37 C3 FF 46 21 AB 39 7E 23 66 6F B4 28 38 E5 DD E1 DD CB 04 7E 20 F0 DD 7E 07 D6 06 D9 B8 20 10 D9 E5 CD C3 2E E1 30 DF FD 75 0D FD 74 0E 18 AF B9 D9 20 D3 3A 63 2C A7 20 CD E5 CD C3 2E E1 30 C6 22 62 2C 18 C1 3A AC 24 A7 28 3B CD 9F 2E 3A 84 24 FE 03 3E F4 28 02 3E FA DD 86 07 D9 B8 20 0A D9 E5 CD C3 2E E1 30 1E 18 BD B9 D9 20 18 3A 63 2C A7 20 12 CD 9F 2E CD C3 2E 30 0A FD 36 0D 00 FD 36 0E 00 18 27 2A 62 2C FD 36 0D 00 FD 36 0E 00 7C A7 C8 E5 DD E1 DD CB 09 4E 28 06 DD CB F9 66 18 04 DD CB 0B 66 20 04 FD CB 0C A6 AF D6 01 C9 CD 24 3B 78 C6 06 47 3C 4F D9 21 AB 39 7E 23 66 6F B4 C8 E5 DD E1 DD CB 04 76 28 F1 DD 7E 07 D9 B8 28 01 B9 D9 20 E6 E5 CD C3 2E E1 30 DF C9 CD 24 3B 41 05 D9 AF 32 62 2C 21 AB 39 7E 23 66 6F B4 28 42 E5 DD E1 DD CB 04 7E 20 F0 DD 7E 07 D9 B9 20 1A D9 E5 CD C3 2E E1 30 E1 FD 7E 0B F6 E0 E6 EF 4F DD 7E 0C A1 DD 77 0C C3 4F 2D B8 D9 20 CB 3A 62 2C A7 20 C5 E5 CD C3 2E E1 30 BE 3E FF 32 62 2C 18 B7 3A AC 24 A7 28 2F CD 9F 2E DD 7E 07 D9 B9 20 0F D9 CD C3 2E 30 1F 18 BE CD 3B 2B E5 DD E1 C9 B8 D9 20 12 3A 62 2C A7 20 0C CD 9F 2E CD C3 2E 30 04 3E FF 18 03 3A 62 2C A7 C8 37 C9 CD D6 2E 7B D9 BA 7B D9 D0 BA D0 7D D9 BC 7D D9 D0 BC C9 DD 7E 04 CB 4F 20 16 1F 3E 03 CE 00 4F DD 86 05 57 91 91 5F 79 DD 86 06 67 91 91 6F C9 1F 38 10 DD 7E 05 C6 04 57 D6 08 5F DD 6E 06 65 24 2D C9 DD 7E 06 C6 04 67 D6 08 6F DD 5E 05 53 14 1D C9 00 00 1E 60 60 98 8C 60 2F 60 48 AF 8C 48 3E 99 CD C2 4A DD 21 62 2F DD 36 00 00 CD 5A 2F CD BC 30 CD 97 44 CD 9F 30 38 F8 DD 7E 00 FE 01 DA F6 2F 20 05 CD 8B 2F 18 D6 FE 03 21 24 2F E5 CA DA 2F C3 67 2F 1E 03 21 18 2F C3 AF 45 00 04 05 89 9A 3E A9 CD C2 4A DD 21 86 2F CD BC 30 CD 9F 30 38 FB 3A 86 2F FE 02 21 54 10 CB FE C0 CB BE C9 00 03 07 08 96 3E A6 CD C2 4A DD 21 D5 2F CD BC 30 06 08 C5 78 3D CD 7E 30 C1 C5 78 3D CD 56 0A C1 10 F0 CD 94 30 38 FB C0 3E A8 CD C2 4A DD 7E 00 DD 86 04 CD C2 4A 3E 02 CD C2 4A DD 7E 00 CD 7E 30 DD 7E 00 CD 85 0A 3E A7 CD C2 4A 18 D4 00 08 00 85 8E 3E AA CD C2 4A DD 21 F1 2F CD BC 30 CD 9F 30 38 FB DD 7E 00 C3 05 02 01 02 05 09 9E 3A 94 41 FE 01 D8 3E AB CD C2 4A DD 21 1B 30 DD 36 00 00 CD BC 30 CD 9F 30 38 FB DD 7E 00 FE 02 CA 24 2F 1F C9 00 03 09 09 A0 CD A5 0B CD 65 08 3E BA CD C2 4A CD 5A 2F CD CF 43 E5 3A EA 3D F6 E0 3C 3E C4 28 0D 7C C6 10 30 01 7C 07 07 07 E6 07 C6 BF CD C2 4A 3E BB CD C2 4A CD 9E 43 CD B3 4B 3E BC CD C2 4A D1 CD B3 4B 3E BD CD C2 4A CD 99 43 7B CD C4 4B 3E BE CD C2 4A CD A5 0B CD 3C 0A 38 F8 06 C0 C3 91 0D 87 DD 86 03 E6 7F 47 0E 0B C5 CD 7C 4B 3E 02 CD C2 4A C1 C3 7C 4B CD 3C 0A D8 79 FE 01 20 07 A7 C9 CD 3C 0A D8 79 A7 C8 DD 7E 00 3C DD BE 01 38 01 AF DD 77 00 DD E5 06 88 CD 91 0D DD E1 DD 46 03 CB B8 DD 4E 02 ED 43 16 2F CD 7C 4B DD 46 01 DD 4E 00 0C 3E AF 0D C5 20 16 DD CB 03 7E 20 09 3E 04 CD C2 4A 3E AE 18 07 3E 03 CD C2 4A 3E AE CD C2 4A DD 7E 01 C1 C5 90 DD 86 04 CD C2 4A E1 E5 ED 4B 16 2F 7D A7 20 07 DD CB 03 7E 20 01 04 04 C5 CD 7C 4B 3E 03 CD C2 4A DD CB 03 7E 20 05 3E 02 CD C2 4A C1 04 ED 43 16 2F CD 7C 4B C1 10 A3 37 C9 FF 50 4C 41 59 FF 05 01 FF 05 02 FF 05 03 FF 20 54 48 45 20 FF 47 41 4D 45 FF 53 45 4C 45 43 54 FF 4B 45 59 FF 41 4E 59 20 87 FF 53 45 4E 53 49 54 49 56 49 54 59 FF 82 50 52 45 53 53 20 FF 82 20 54 4F 20 FF 83 E0 FF 83 53 48 49 46 54 FF 4C 45 46 54 FF 52 49 47 48 54 FF 44 4F 57 4E FF 55 50 FF 4A 55 4D 50 FF 43 41 52 52 59 FF 46 49 52 45 FF 53 57 4F 50 FF 4C 4F 54 53 20 4F 46 20 49 54 FF 4E 4F 54 20 53 4F 20 4D 55 43 48 FF 50 41 52 44 4F 4E FF 00 C5 A3 FF 80 84 85 FF 86 84 87 53 FF 41 44 4A 55 53 54 84 53 4F 55 4E 44 FF 43 4F 4E 54 52 4F 4C 20 89 FF 48 49 47 48 20 89 FF 4C 4F 57 20 89 FF 4F 4C 44 20 85 FF 4E 45 57 20 85 FF 4D 41 49 4E 20 4D 45 4E 55 FF B9 02 15 8A 83 88 8B 4D 4F 56 45 20 43 55 52 53 4F 52 06 01 17 20 8A 8C 8B 86 20 4F 50 54 49 4F 4E 02 FF 06 05 03 8A 8D 8B C8 02 FF 06 05 03 8A 8C 8B C8 02 FF B0 08 00 81 9B A7 FF A3 06 05 03 8A 81 8D 8B C8 02 FF 06 05 03 02 06 01 15 02 06 01 17 8A 83 87 53 82 20 52 45 51 55 49 52 45 44 20 46 4F 52 20 83 FF B0 08 00 82 9C A3 06 06 03 05 00 4D 55 53 49 43 20 42 59 20 47 55 59 20 53 54 45 56 45 4E 53 FF B0 06 00 82 9D A3 FF B0 09 00 82 9A A3 FF 04 82 06 03 03 8A 83 8D 8B C8 20 85 06 04 06 8A 83 88 8B 52 45 53 54 41 52 54 FF 20 20 20 FF 83 21 22 AD FF 03 81 23 24 AD FF 00 07 09 04 06 FF B9 05 14 FF B9 19 14 FF B9 19 17 FF B9 05 17 FF 04 06 12 16 FF 04 06 0C 16 FF B9 01 11 FF 03 82 06 1A 13 26 06 1A 16 82 27 06 06 13 82 25 06 06 16 82 27 FF 03 06 FF C5 06 0A 08 82 04 05 00 FF B9 06 11 81 45 58 50 4C 4F 52 45 44 20 FF 20 52 4F 4F 4D 53 06 09 0E 82 53 43 4F 52 45 20 FF 30 06 05 14 83 4C 49 42 45 52 41 54 45 44 20 FF 20 50 4C 41 4E 45 54 53 FF 20 20 44 55 4D 4D 59 FF 20 20 4E 4F 56 49 43 45 FF 20 20 20 53 50 59 20 20 20 20 FF 4D 41 53 54 45 52 20 53 50 59 FF 20 20 20 48 45 52 4F FF 20 45 4D 50 45 52 4F 52 FF 07 0A 04 06 08 00 82 48 45 41 44 20 20 20 20 20 20 48 45 45 4C 53 B9 0C 01 05 00 20 4F 56 45 52 20 06 01 00 20 4A 4F 4E 06 01 02 52 49 54 4D 41 4E 06 19 00 42 45 52 4E 49 45 06 18 02 44 52 55 4D 4D 4F 4E 44 FF 00 07 06 06 05 00 04 83 84 C7 20 45 4D 50 49 52 45 03 06 03 09 81 45 47 59 50 54 55 53 06 15 17 42 4F 4F 4B 20 57 4F 52 4C 44 06 03 17 53 41 46 41 52 49 06 14 09 50 45 4E 49 54 45 4E 54 49 41 52 59 06 0B 10 C7 FF 42 4C 41 43 4B 54 4F 4F 54 48 FF 46 49 4E 49 53 48 FF B6 05 00 46 52 45 45 44 4F 4D 20 FF 00 07 06 B9 00 0A 82 84 50 45 4F 50 4C 45 20 53 41 4C 55 54 45 20 59 4F 55 52 20 48 45 52 4F 49 53 4D 06 08 0C 41 4E 44 20 50 52 4F 43 4C 41 49 4D 20 59 4F 55 04 06 0B 10 05 00 C4 FF ED 4B 0E 01 21 90 34 CD 79 34 ED 53 0E 01 C9 CD 86 34 28 08 D5 CD 86 34 D1 20 F4 C9 79 5E 23 56 23 BB C0 78 BA C9 40 8A 50 71 40 89 80 04 70 BA 00 13 00 41 80 29 00 A1 00 26 00 81 80 E9 00 84 00 B1 00 85 20 EF 00 A4 F0 00 00 A5 D0 88 D0 BC D0 DE B0 2D D0 8B 90 11 C0 E1 B0 00 C0 E2 B0 10 00 C1 F0 8B F0 00 30 97 20 EF 00 1D 00 A8 70 BA 00 4E 00 88 30 1B 00 4C 30 39 30 8B 30 8D F5 7D 26 00 32 38 35 CD FA 35 EB 11 C0 B9 D5 01 50 01 ED B0 E1 F1 87 C6 08 FE 39 38 02 3E 38 47 87 80 5F 16 00 19 EB 21 A8 00 19 78 ED 44 C6 39 47 0E FC 18 13 1A A1 12 13 13 13 79 2F B6 77 23 23 23 A7 CB 11 A7 CB 11 10 EB AF 32 ED 36 C9 04 00 21 00 69 4D 3E 01 A7 1F CB 11 20 FB 77 2C 20 F3 C9 32 38 35 E6 7F FE 10 38 34 11 06 06 26 12 FE 54 38 05 11 08 08 26 14 FE 18 30 0F 3A A2 1C E6 02 16 04 26 0C 28 04 16 00 26 10 78 82 6F 92 94 67 79 83 4F 93 93 47 7B A7 1F 32 37 35 C9 2A 71 1D 23 23 CB 6E 08 7E D6 10 FE 20 2E 04 30 02 2E 08 78 85 6F D6 38 67 08 79 06 08 20 02 06 04 80 4F D6 0C 47 3E 03 32 37 35 C9 3A 38 35 E6 7F FE 54 D2 7C 36 FE 18 30 7E FE 10 26 00 30 4B 6F ED 5B 71 1D 13 13 1A F6 FC 3C 20 26 3A 38 35 4F 17 3A B9 1E 38 04 FE 06 18 02 FE 03 28 14 3A ED 36 A9 17 11 C0 B9 21 68 BA D0 79 32 ED 36 06 70 18 66 7D 5F 87 87 83 87 6F 29 29 29 7B 84 67 11 70 82 19 11 A8 00 06 70 18 46 D6 10 6F 87 85 6F 29 29 29 29 29 29 11 50 8A 19 11 60 00 06 40 EB 19 D9 CD BE 36 D9 D4 60 36 3A A2 1C E6 02 C0 01 30 00 09 EB 09 EB C9 D6 18 57 1E 00 63 87 87 6F 29 29 CB 3A CB 1B 19 11 D0 8B 19 11 48 00 06 30 EB 19 D9 CD BE 36 D9 D8 E5 D5 EB 16 69 4E 22 71 36 23 5E 1A 77 23 5E 1A 32 00 00 59 1A 77 23 10 EC D1 E1 C9 D6 54 57 07 07 26 00 6F 5C 29 29 29 EB ED 52 11 30 AA 19 11 70 00 06 38 EB 19 D9 CD BE 36 D9 D8 E5 D5 EB 16 69 4E 22 B3 36 23 5E 23 1A 5E 77 2B 1A 77 23 23 5E 1A 32 00 00 59 1A 77 23 10 E6 D1 E1 C9 3A 38 35 4F E6 07 3C 47 3E 01 0F 10 FD 47 79 1F 1F 1F E6 0F 5F 16 00 21 E0 70 19 78 A6 28 08 CB 11 D8 78 2F A6 77 C9 CB 11 3F D8 78 B6 77 C9 00 0B 23 FF 00 3D 8E 3D FD 36 09 00 6F 5F 16 00 62 29 19 11 C9 38 19 46 23 7E E6 3F FD 77 0A 7E 23 07 07 E6 03 28 13 C6 F1 5F CE 36 93 57 1A FD CB 09 EE CB 56 28 03 48 47 79 32 F1 36 78 CD 4E 37 7E F6 9F 3C 7E 20 06 FD CB 09 FE E6 BF E6 FB FE 80 CB BF FD 77 FF FD 36 FE 02 D8 FD CB 09 E6 C9 FD 36 0F 00 FD 77 08 FE 80 D8 87 87 87 FD 77 0F E5 CD AB 37 E1 C9 ED 53 EE 36 D5 FD E1 3D 87 C6 7F 6F CE 38 95 67 7E 23 66 6F AF 32 E8 4B FD 7E 0B 32 F0 36 FD 36 0B FF FD CB 09 76 C0 E9 FD CB 09 6E 28 19 CD AB 37 08 FD 4E 10 11 12 00 FD E5 FD 19 CD 9D 50 CD AB 37 FD E1 D8 08 C9 FD 4E 0F 79 E6 F8 FE 08 3F D0 0F 0F D6 02 C6 F3 6F CE 37 95 67 79 3C E6 07 47 86 5F 23 8E 93 57 1A A7 20 07 06 00 7E 2B 6E 67 7E FD 77 08 78 A9 E6 07 A9 FD 77 0F E6 F0 FE 80 0E 02 28 04 FE 90 0E 01 79 CC 1C 2B 37 C9 31 38 36 38 38 38 3A 38 3A 38 3F 38 3F 38 44 38 44 38 47 38 47 38 4D 38 52 38 57 38 57 38 5E 38 60 38 62 38 62 38 67 38 67 38 6A 38 6C 38 6E 38 70 38 72 38 74 38 76 38 78 38 7A 38 7A 38 A4 24 25 26 00 10 00 11 00 24 25 25 24 00 2D 2D 2E 2E 00 57 D7 00 2B 2B 2C 2B 2C 00 32 32 33 33 00 34 34 35 35 00 26 25 26 A6 A5 A6 00 36 00 37 00 38 39 B9 B8 00 3A BA 00 3B 00 3C 00 3E 00 3F 00 40 00 41 00 42 00 43 00 44 45 C5 C4 00 DC 4D 46 4D 4A 4D 4E 4D 52 4D F3 4D F8 4D FD 4D 11 4E 86 4C 02 4E 07 4E 0C 4E D6 4C 16 4E 82 4E 80 4D 31 4D 3B 4D 66 4D ED 4D E7 4D 2E 4D 63 4D 76 4C CF 4D 18 4C 98 4D FB 4B EB 4B 5C 4D 5E 4C 36 4F 92 4D 3F 4C 29 4C 1B 4E 88 1B 01 2B 1C 40 31 00 02 4A 01 40 9E 17 00 5D 00 01 56 02 11 56 03 11 56 04 01 56 05 01 46 01 40 4B 01 40 90 8F 6C 4C 0A 00 58 00 21 5E 00 21 30 0E 00 94 09 60 96 4F 6C 9A DD 0C 49 1E 00 5A 01 01 5F 00 01 5F 14 01 48 00 00 92 0B 60 31 18 02 82 06 68 84 CC 6C 47 0A 20 5C 1F 01 55 15 01 96 CD 6C 5B 00 21 5D 14 01 59 14 01 59 00 01 3D 20 60 92 21 60 9E 12 00 55 01 01 5F 13 01 8C 07 60 5A 16 01 5D 08 01 55 23 01 9C CD 6C 42 00 20 47 0A 00 2D 00 20 56 14 01 5D 0A 01 5D 01 01 98 4F 6C 98 CD 6C 82 08 68 36 00 20 37 00 20 1E 00 00 18 00 00 4C 24 00 4C A5 2C 84 21 60 1B 00 40 6A A9 39 AB 39 00 00 00 00 00 00 00 00 00 00 00 00 00 00 00 00 00 00 00 00 00 40 6A A9 39 AB 39 00 00 00 00 00 00 00 00 00 00 00 00 00 00 00 00 00 00 00 00 40 6A 00 00 32 A2 39 87 87 C6 A9 6F CE 39 95 67 22 A5 39 23 23 22 A7 39 C9 21 12 00 19 E5 EB 01 05 00 ED B0 7E D6 06 12 13 23 23 CB 6E 20 03 2B ED A0 E1 C9 E5 C5 23 23 CD 03 1E C1 E1 D0 ED 5B A3 39 D5 ED B0 ED 53 A3 39 E1 E5 FD E1 FD CB 04 5E 28 2B 01 09 00 E5 ED B0 EB 1A F6 02 77 23 36 00 11 08 00 19 22 A3 39 FD CB 09 6E 28 0F FD E5 11 12 00 FD 19 3A F1 36 CD 4E 37 FD E1 E1 3A A2 39 3D FE 02 30 23 23 23 FD CB 04 5E 28 14 E5 CD 5F 3A D1 CD D6 39 E5 CD 31 3B D9 FD E5 E1 23 23 18 51 E5 CD 31 3B D9 18 47 23 23 FD CB 04 5E 28 14 E5 CD 82 3A D1 CD D6 39 E5 CD 31 3B D9 FD E5 E1 23 23 18 2E E5 CD 31 3B 3E 03 08 3A C4 1E BA 38 19 3A C5 1E BC 38 13 3E 04 08 3A C2 1E 3D BB 30 09 3A C3 1E 3D BD 30 02 AF 08 D9 08 CD C1 39 2A A5 39 22 BF 39 7E 23 66 6F B4 28 0D E5 CD 31 3B CD A5 3B E1 30 EC A7 20 EC 2A BF 39 D1 7E ED A0 4F 7E 12 1B 72 2B 73 69 67 B1 20 05 2A A7 39 23 23 2B 1B ED A8 7E 12 73 23 72 C9 E5 CD F1 3A E1 C3 66 3A FD CB 04 5E 28 09 E5 CD 00 3B D1 21 12 00 19 5E 23 56 23 D5 7A B3 13 13 20 04 ED 5B A5 39 7E ED A0 4F 7E 12 67 69 B1 2B 20 04 2A A7 39 23 D1 72 2B 73 C9 CD 2F 3B E6 08 C8 79 D6 06 4F C9 23 23 23 23 7E 23 4F 08 79 CB 57 20 42 CB 4F 20 1A E6 01 C6 03 47 87 4F 7E 80 57 91 5F 23 7E 23 80 46 67 91 6F 78 D6 06 4F 08 C9 1F 38 11 7E C6 04 57 D6 08 5F 23 7E 23 46 67 6F 24 2D 18 E6 56 5A 14 1D 23 7E 23 C6 04 46 67 D6 08 6F 18 D6 7E CB 19 38 06 5F C6 04 57 18 04 57 D6 04 5F 23 7E 23 46 CB 19 38 06 6F C6 04 67 18 04 67 D6 04 6F 78 D6 12 4F 08 C9 7D D9 BC 7D D9 30 03 BC 38 37 7B D9 BA 7B D9 30 03 BA 38 64 79 D9 B8 79 D9 30 03 B8 38 17 7D 83 81 6F CE 00 95 67 D9 7D 83 81 D9 5F CE 00 93 57 ED 52 3E FF C9 7D 83 6F D9 7D 83 D9 BD 3F 3E FF C9 7B D9 BA 7B D9 30 03 BA 38 26 79 D9 B8 79 D9 30 03 B8 38 15 D9 83 D9 6F CE 00 95 67 79 83 5F CE 00 93 57 ED 52 3F 3E FF C9 7B D9 BB D9 3E 00 C9 79 D9 B9 D9 3E 00 C9 79 D9 B8 79 D9 30 03 B8 38 14 D9 85 D9 5F CE 00 93 57 79 85 6F CE 00 95 67 ED 52 3E FF C9 7D D9 BD D9 3E 00 C9 00 00 00 00 00 00 00 00 CD 82 3D 79 D6 06 4F 80 1F 32 46 3C 78 ED 44 81 1F 32 47 3C 78 32 48 3C C9 32 49 3C CD 85 3C 3A C0 1E E6 04 C0 06 04 D9 3E 80 32 11 3D CD 82 3D 11 02 00 FD 7E FF FD 96 FD 18 1B 3A C0 1E E6 08 C0 06 08 D9 AF 32 11 3D CD 82 3D 2D 2D 11 FE FF FD 7E FE FD 96 FC 1F 1F 1F 1F E6 0F E5 DD E1 D9 4F 3A C1 1E A0 FE 01 08 3A BF 1E 47 C6 D8 6F CE 70 95 67 22 44 3C 78 87 47 87 87 C6 A9 6F CE 3D 95 67 22 AB 1E 3E 80 32 AD 1E 3E 9A 80 6F CE 3D 95 67 7E 23 66 6F 22 42 3C 3E FF 08 79 F5 D6 04 06 01 28 0C 06 0F 3C 28 07 06 19 3C 28 02 06 1F F1 38 06 79 87 80 47 79 08 CD 7A 3D 10 FB 41 CB 20 08 3D 28 32 08 F6 00 DD 77 01 D9 79 C6 08 DD 71 00 4F DD 19 D9 CD 7A 3D 10 E6 D9 DD E5 E1 7D FE 40 D0 DD 7E 00 A7 C0 3A 11 3D F6 05 DD 77 01 79 D6 10 DD 77 00 C9 D9 3A 49 3C A7 79 28 03 C6 10 4F D6 10 DD 77 00 3A 11 3D F6 04 DD 77 01 DD 19 DD 77 01 79 D6 08 DD 77 00 C6 18 4F 3A 49 3C A7 28 04 79 D6 10 4F DD 19 3E FF 08 D9 05 18 A9 C5 06 02 CD B2 22 C1 C9 FD 7E FE 57 FD 5E FF 93 C6 80 47 1F 1F E6 3E 6F 26 6A 3E 07 93 92 4F C9 F0 70 90 73 30 76 F0 77 B0 79 30 7D F0 7E 90 81 46 91 65 94 A1 69 69 AA 49 24 51 49 12 44 92 A4 04 10 10 41 04 00 44 00 04 10 10 41 04 00 10 00 4E 31 B4 E7 4E 42 E4 99 45 51 50 51 54 55 55 55 64 19 65 11 A4 41 28 55 00 00 00 00 00 00 00 00 00 70 14 00 72 60 30 01 40 B0 2E 09 34 B0 00 1A 00 F0 9A 0B 70 40 A7 1C 44 30 37 7D 37 70 15 68 34 60 89 48 47 60 C5 68 76 80 1B 68 76 D0 BC 28 35 D0 1C 28 71 F0 87 38 74 20 FB 28 71 60 31 48 05 C0 E2 38 54 20 69 68 07 60 52 62 77 60 47 72 27 C0 E3 42 07 F0 63 12 70 20 AA 22 05 30 6C 22 46 60 47 73 57 80 FA 63 67 F0 70 13 60 10 7B 73 31 60 64 74 70 80 1A 44 45 F0 46 74 74 60 C5 66 74 70 98 76 00 00 32 76 50 80 29 76 40 A0 E0 16 40 A0 0F 66 47 B0 03 26 44 F0 83 36 17 40 8A 06 06 20 99 76 14 60 C5 65 75 60 77 75 44 00 36 75 66 A0 FE 75 22 F0 42 65 61 20 AE 75 04 30 8D 7E 47 30 8D 6E 17 30 8D 7E 07 30 8D 6E 37 30 8D 3E 27 27 28 29 2A 2A 2A 2A 00 86 2F 2F 2F 2F 2F 2F ED 4B 0E 01 21 EB 3D 1E 34 79 BE 23 20 03 78 BE C8 23 23 23 1D 20 F2 1D C9 23 AF ED 6F 5F ED 6F 57 ED 6F 23 ED 6F 47 ED 6F 4F ED 6F C9 C5 21 A7 3E 3A EA 3D 2F 06 05 11 04 00 CB 1E 1F CB 16 19 10 F8 C1 CD CE 3E C0 E5 D5 C5 FD E5 CD E3 3E FD 21 98 1E 7A FE 0E 3E 60 20 01 AF FD 77 04 FD 72 11 FD 36 0A 1A 7A C6 BB 6F CE 3E 95 67 7E C5 D5 CD 4E 37 D1 C1 FD E1 7B CD 6E 22 CD CC 20 C1 D1 E1 CD DB 3E 18 C0 21 EB 3D 11 04 00 06 34 CB 86 19 10 FB C9 57 CD CA 3E C0 23 7E 2B E6 0F BA 28 05 CD DB 3E 18 F2 2B CB C6 87 C6 89 6F CE 3F 95 67 5E 23 66 6B DD 21 84 3F E9 06 C5 C3 91 0D A5 3F A5 3F B4 3F C3 3F CC 3F D8 3F DC 3F 00 00 25 40 14 40 14 40 14 40 14 40 14 40 7A 21 7B 24 CD 39 41 CD 9C 45 06 C2 C3 91 0D 3A 84 24 E6 02 C8 3E 06 CD F2 3F 3E 02 18 E3 3A 84 24 E6 02 C8 AF 18 26 3A 84 24 E6 01 C8 18 1E DD 21 E2 3E 0E 02 18 02 0E 04 3A 84 24 FE 03 28 06 1F E6 01 81 18 07 79 F5 CD F7 3F F1 3C F5 CD B2 19 F1 CD 78 41 CD 66 41 F5 C5 A7
[...]
4000 :  3E 81 28 02 3E 83 CD C2 4A C1 79 C6 B1 CD C2 4A
4010 :  F1 C3 BF 4B 7A D6 09 21 EA 3D CD 39 41 06 C1 CD 91 0D C3 1D 45 06 C2 CD 91 0D CD 2A 41 DD 21 EB 3D 11 04 00 06 06 36 80 DD 7E 00 DD 19 1F CB 1E 30 F6 23 10 F1 EB 21 94 41 34 21 84 24 7E ED A0 21 80 24 ED A0 ED A0 FE 03 28 13 21 96 24 BE 20 0D 21 31 BB 01 04 00 ED B0 21 10 BB 18 0B 21 92 24 01 04 00 ED B0 21 0E 01 ED A0 ED A0 21 0E 01 ED A0 ED A0 C9 21 94 41 35 CD 2A 41 7E E6 03 32 7B 24 7E 1F 1F E6 1F 32 EA 3D E5 DD E1 21 EB 3D 11 04 00 06 2F CB 1E 18 0A CB 1E DD CB 00 3E 20 07 DD 23 37 DD CB 00 1E CB 16 19 10 EC DD E5 E1 23 11 84 24 7E ED A0 11 80 24 ED A0 ED A0 11 58 46 ED A0 CB 47 11 B5 24 28 03 11 C7 24 01 03 00 ED B0 11 0E 01 ED A0 ED A0 FE 03 28 16 ED 4B 80 24 05 FA 03 41 0D FA 03 41 EE 03 32 10 BB E5 CD 22 23 E1 11 0E 01 ED A0 ED A0 ED 4B 0E 01 CB C1 CD CE 3E CD E3 3E 7B 08 11 5E 42 21 5B 42 CD 75 22 3E 08 32 58 46 32 87 24 C9 3A 94 41 47 04 21 83 41 11 12 00 19 10 FD C9 47 04 3E 80 07 10 FD B6 77 C9 CD 78 41 CD 6E 41 C8 7E CD FD 3F F6 FF C9 3E B8 CD C2 4A 3E 07 F5 3D CD 78 41 7E CD FD 3F F1 3D 20 F3 C9 86 27 77 D0 3E 99 77 C9 7E A7 C8 D6 01 27 77 F6 FF C9 4F 06 00 21 8D 41 09 3A 58 46 A7 7E 28 02 3E 03 21 7C 24 09 C9 99 10 99 99 02 02 06 00 FF 21 00 F8 CD 41 4D F6 01 D1 C9 CD 17 28 C3 34 6C CD 67 1D 21 DA 76 CD AD 6A CD 87 55 CD 67 1D CD 88 43 CD AF 5F 21 00 00 22 73 76 C3 67 1D 3A 74 76 B7 FA D6 4B 3A 73 76 FE F3 DA D6 4B 37 C9 E6 7F E5 21 73 76 CD 00 00 00 00 00 00 00 00 00 00 00 00 00 00 00 00 00 00 00 00 00 00 00 00 00 00 00 00 00 00 00 00 00 00 00 00 00 00 00 00 00 00 00 00 00 00 00 00 00 00 00 00 00 00 00 00 00 00 00 00 00 00 00 00 00 00 00 00 00 00 00 00 00 00 00 00 00 00 00 00 00 00 00 00 00 00 00 00 00 00 00 00 00 00 00 00 00 00 00 00 00 00 00 00 00 00 00 00 00 00 00 00 00 00 00 00 00 00 00 00 00 00 00 00 00 00 00 00 00 00 00 00 00 00 00 00 00 00 00 00 00 00 00 00 00 00 00 00 00 00 00 00 00 00 00 00 00 00 00 00 00 00 00 00 00 00 00 00 00 00 00 00 00 00 00 00 00 00 00 00 00 00 00 00 00 00 00 00 00 00 00 00 00 00 00 00 00 00 00 00 00 00 00 00 00 00 00 00 00 00 00 00 00 00 00 00 00 00 00 00 00 00 00 00 00 00 00 00 00 00 00 00 00 00 00 00 00 00 00 00 00 00 00 00 00 00 00 00 00 00 00 00 00 00 00 00 00 00 00 00 00 00 00 00 00 00 00 00 00 00 00 00 00 00 00 00 00 00 00 00 00 00 00 00 00 00 00 00 00 00 00 00 00 00 00 00 00 00 00 00 00 00 00 00 00 00 00 00 00 00 00 00 00 00 00 00 00 00 00 00 00 00 00 00 00 00 00 00 00 00 00 00 00 00 00 00 00 00 00 00 00 00 00 00 00 00 00 00 00 00 00 00 00 00 00 00 00 00 00 00 00 00 00 00 00 00 00 00 00 00 00 00 00 00 00 00 00 00 00 00 00 00 00 00 00 00 00 00 00 00 00 00 00 00 00 00 00 00 00 00 00 00 00 00 00 00 00 00 00 00 00 00 00 00 00 00 00 00 00 00 00 00 00 00 00 00 00 00 00 00 00 00 00 00 21 7B 24 CB 96 D9 01 01 00 18 0C 21 EA 3D 18 F5 21 61 42 D9 01 2D 01 D9 11 00 00 D9 D9 4E 37 CB 11 7B CE 00 27 5F 7A CE 00 27 57 CB 21 20 F2 23 D9 0B 78 B1 20 E6 D9 C9 21 61 42 01 2D 01 C3 67 24 CD 5E 01 F5 CD 9E 43 F1 21 00 00 20 0C 21 01 05 3A 85 24 A7 28 03 21 02 10 01 10 00 CD 01 44 E5 CD 8E 43 E1 01 F4 01 CD 01 44 E5 CD 99 43 E1 01 7C 02 7B 85 27 6F 7C 8A 27 67 0B 78 B1 20 F3 C9 E6 0F C6 1A 6F CE 44 95 67 7E C9 FF 00 04 FF 06 07 05 06 02 01 03 02 FF 00 04 FF 6F 87 85 C6 3A 6F CE 44 95 67 4E 23 46 23 7E C9 FF 00 0D FF FF 09 00 FF 0B 01 FF 0A 01 00 0E 01 01 06 00 01 07 FF 01 05 2A EE 36 E5 CD 2A 44 11 0B 00 E1 19 AE E6 0F AE 77 11 FA FF 19 7E 81 77 23 7E 80 77 C9 34 7E 85 5F 8C 93 57 1A A7 C0 36 01 23 7E C9 7E 34 87 85 5F 8C 93 57 13 1A A7 28 05 EB 5F 23 56 C9 36 01 23 5E 23 56 C9 2A C8 44 55 29 ED 6A 4C 2A C6 44 44 CB 10 5C CB 13 CB 12 09 22 C6 44 2A C8 44 ED 5A CB BC 22 C8 44 FA C2 44 21 C6 44 34 23 28 FC 2A C6 44 C9 4A 6F 6E 21 E5 E5 FD E5 E5 FD E1 CD F1 3A FD E1 E1 CD EE 44 DD E1 DD CB 04 FE 3A 10 01 DD 4E 0A A9 E6 80 A9 DD 77 0A C9 FD E5 23 23 CD 1E 1E EB 60 69 CD EE 1C FD E1 C9 E5 E5 FD E5 E5 FD E1 CD 66 3A FD E1 E1 CD EE 44 DD E1 DD CB 04 BE DD 36 0B FF DD 36 0C FF C9 3A EA 3D FE 1F 20 14 3E CA CD C2 4A CD A5 0B 11 0F 04 21 18 2F CD B1 45 CD 5E 45 CD 41 45 CD F8 04 C3 92 23 3E C6 CD C2 4A CD A5 0B 21 7E 45 11 FF 05 CD B1 45 21 8D 45 ED 5B EA 3D 16 05 CD B1 45 CD 36 0A CD 6C 45 CD 65 08 06 C1 C3 91 0D 21 00 A8 E5 CD A5 0B CD 3C 0A E1 D0 2B 7C B5 20 F2 C9 4C 54 78 4C A4 78 4C 54 E8 4C A4 E8 4C 7C B0 2F 54 60 2F A4 60 2F 54 D0 2F A4 D0 2F 7C 98 CD 39 2C 21 CD 45 ED 5B 7B 24 16 03 CD B1 45 ED 5B 84 24 16 02 7E 23 4E 23 46 23 E5 CB 1B D5 30 09 CD F3 45 D1 E1 15 20 EC C9 16 01 CD DE 45 18 F3 27 B0 F0 28 44 F0 29 44 D8 98 94 F0 1E 60 F0 16 03 32 38 35 78 D6 48 47 D5 C5 CD B3 35 21 0C 18 C1 F1 A7 C3 B0 08 2E 01 2D 2C 28 E3 32 38 35 CD 1A 46 CD 4E 46 CD B3 35 01 00 67 D9 06 18 CD DD 14 C3 A7 05 CD 1A 46 CD 4E 46 C3 A7 05 61 7C C6 0C 6F 22 98 1C 78 C6 18 4F ED 43 9A 1C C9 32 38 35 CD 1A 46 78 C6 20 32 9A 1C CD 4E 46 3E 02 32 A2 1C CD B3 35 01 00 67 D9 06 20 CD DD 14 C3 A7 05 21 00 68 01 00 01 C3 67 24 00 00 00 00 00 F5 CD 24 3B D9 F1 32 5B 46 CD 6C 46 3A 5B 46 C9 11 8B 46 D5 4F 87 87 81 C6 B7 6F CE 47 95 67 7E 32 57 46 23 5E 23 56 23 7E 23 66 6F D5 D9 C9 D9 C8 E5 DD E1 CB 51 20 15 21 A9 39 7E 23 66 6F B4 28 24 E5 CD B2 19 E1 38 3B 20 F0 18 19 21 AB 39 7E 23 66 6F B4 28 09 E5 CD B2 19 E1 38 28 20 F0 CD 3B 2B 5D 18 06 CD 3B 2B 5D 23 23 FD CB 09 46 28 04 FD 7D BB C8 3A AC 24 A7 C8 CD B2 19 D0 CD 3B 2B 23 23 2B 2B E5 DD E1 3A 57 46 DD CB 09 4E 28 08 DD A6 FA DD 77 FA 18 06 DD A6 0C DD 77 0C AF D6 01 F5 DD E5 FD E5 CD 0D 47 FD E1 DD E1 F1 C9 FD CB 09 46 20 0C DD CB 09 46 28 76 FD E5 DD E3 FD E1 FD 4E 09 FD 46 04 DD CB 04 6E C8 DD CB 04 76 20 43 A7 28 05 DD CB 09 66 C0 CB 58 06 03 20 06 05 CB 51 20 01 05 AF 21 7E 24 BE 28 02 CB 80 23 BE 28 02 CB 88 78 A7 C8 21 5A 46 B6 77 2B 7E A7 C0 3A EA 3D FE 1F C8 36 0C 3A 58 46 A7 C4 D4 3F 06 C6 C3 91 0D DD 36 0F 08 DD 36 04 80 DD 7E 0A E6 80 F6 11 DD 77 0A DD CB 09 B6 DD 7E 11 C3 5E 3F FD CB 09 5E 20 09 DD CB 09 5E C8 FD E5 DD E1 DD CB 09 4E 28 05 11 EE FF DD 19 DD CB 09 7E C8 DD CB 09 F6 DD 36 0B FF C9 FD FE 48 C4 48 FF DF 47 00 00 FB 55 49 E2 48 FF 00 48 00 00 FE A5 49 68 48 FF 24 48 00 00 F7 ED 49 A9 48 FF 47 48 00 00 D9 E1 D1 AF CD 65 46 38 0E D9 15 1D D9 3E 02 CD 65 46 3E 01 D0 AF C9 3E 02 CD 65 46 D8 A7 3E 02 C9 D9 E1 D1 3E 04 CD 65 46 38 10 D9 14 1C D9 3E 02 CD 65 46 3E 03 D0 3E 04 A7 C9 3E 02 CD 65 46 D8 A7 3E 02 C9 D9 E1 D1 3E 04 CD 65 46 38 10 D9 14 1C D9 3E 06 CD 65 46 3E 05 D0 3E 04 A7 C9 3E 06 CD 65 46 D8 3E 06 C9 D9 E1 D1 AF CD 65 46 38 0E D9 15 1D D9 3E 06 CD 65 46 3E 07 D0 AF C9 3E 06 CD 65 46 D8 A7 3E 06 C9 23 23 CD 90 4A 7E 91 D9 BA D9 38 31 20 1D 23 7E 90 D9 BC 7D D9 30 26 90 BE 30 22 23 D9 79 D9 BE 30 1B 7E 93 D9 B8 D9 30 14 37 C9 23 7E 90 D9 BC D9 38 0A 23 7E 93 D9 B8 D9 38 02 AF C9 3E FF A7 C9 23 23 CD 90 4A 7E 91 D9 BA 7B D9 30 DD 91 BE 30 EB 23 7E 90 D9 BC D9 28 C1 18 E1 CD 90 4A D9 7B D9 91 BE 38 D7 23 28 A6 D9 7D D9 90 BE 38 CD 23 7E 83 D9 B8 D9 30 C5 AF C9 CD 90 4A D9 7B D9 91 BE 23 30 E4 2B 7E 91 D9 BA 7D D9 30 AF 23 90 BE CA 83 48 18 A7 CD 7D 4A 28 33 CD 35 4A 3E 24 38 2F DD CB FF 46 28 14 3A F1 1E CD 69 4A 38 1E CD 59 4A 38 20 3A C2 1E D6 04 18 09 DD CB FE 46 28 0C 3A C2 1E BB C0 3E 01 32 58 46 37 C9 3A C2 1E BB C0 37 C9 CD 61 4A 38 F4 CD 36 49 C0 7D FE 25 3E F7 38 02 3E FB 32 AF 24 AF 37 C9 CD 7D 4A 28 30 CD 3F 4A 3E 24 38 2C DD CB FF 4E 28 14 3A F0 1E CD 69 4A 38 1B CD 49 4A 38 1D 3A C3 1E D6 04 18 09 DD CB FE 4E 28 09 3A C3 1E BD C0 3E 02 18 A7 3A C3 1E BD C0 37 C9 CD 51 4A 38 F4 CD 8A 49 C0 7B FE 25 3E FE 38 AE 3E FD 18 AA CD 7D 4A 28 31 CD 35 4A 3E 2C 38 2D DD CB FF 56 28 14 3A EF 1E CD 69 4A 38 1C CD 59 4A 38 1E 3A C4 1E C6 04 18 09 DD CB FE 56 28 0A 3A C4 1E BA C0 3E 03 C3 31 49 3A C4 1E BA C0 37 C9 CD 61 4A 38 F4 CD DB 49 C3 45 49 CD 7D 4A 28 31 CD 3F 4A 3E 2C 38 2D DD CB FF 5E 28 14 3A EE 1E CD 69 4A 38 1C CD 49 4A 38 1E 3A C5 1E C6 04 18 09 DD CB FE 5E 28 0A 3A C5 1E BC C0 3E 04 C3 31 49 3A C5 1E BC C0 37 C9 CD 51 4A 38 F4 CD 23 4A C3 99 49 3A C5 1E BC D8 7D DD BE 01 C9 3A C4 1E BA D8 7B DD BE 00 C9 3E 2C BA D8 7B FE 24 C9 3E 30 BA D8 7B FE 20 C9 3E 2C BC D8 7D FE 24 C9 3E 30 BC D8 7D FE 20 C9 90 D8 F5 3A 84 24 FE 03 20 05 F1 FE 03 3F C9 F1 FE 09 3F C9 DD 21 C2 1E FD CB 09 46 C8 FD 7E 0A E6 7F D6 01 D8 AF C9 23 23 7E 23 1E 06 CB 4F 20 08 1F 3E 03 CE 00 47 4F C9 1F 38 04 01 04 01 C9 01 01 04 C9 00 00 00 00 00 00 00 00 00 00 00 00 00 00 00 00 02 40 80 00 FF C3 C5 4A FE 80 30 31 D6 20 38 3E CD 80 05 21 04 08 3A C0 4A A7 C4 9F 4B ED 4B BE 4A 79 C6 04 32 BE 4A 3A C1 4A A7 3A BD 4A 20 0A 3C E6 03 37 20 01 3C 32 BD 4A C3 B0 08 E6 7F CD 8A 4B 7E FE FF C8 23 E5 CD C2 4A E1 18 F4 C6 20 FE 05 30 31 A7 CA 65 08 D6 02 38 14 28 05 3D 32 C0 4A C9 3A BE 4A FE C0 D0 3E 20 CD C2 4A 18 F3 2A BE 4A 3A C0 4A A7 7C 28 02 C6 08 C6 08 67 2E 40 22 BE 4A C9 21 5A 4B 28 0A FE 07 21 55 4B 28 03 21 68 4B 22 C3 4A C9 CD 2C 05 18 09 A7 32 C1 4A 28 03 32 BD 4A 21 C5 4A 18 E9 21 74 4B 87 87 C6 40 32 BE 4A 18 DD 87 87 87 32 BF 4A 18 E7 ED 43 87 4B 21 86 4B C3 FF 4A 06 00 00 FF 47 21 31 31 D6 60 38 04 21 09 09 47 04 3E FF 4F ED B1 10 FB C9 06 08 21 AD 4A 1A 77 23 77 23 13 10 F8 21 04 10 11 AD 4A C9 01 F8 00 D5 7A CD C7 4B D1 7B 18 08 01 FE FF 18 03 01 FE 00 F5 1F 1F 1F 1F CD D0 4B F1 E6 0F 20 09 CB 09 38 05 CB 08 D0 3E F0 0E FF C6 30 C5 CD C2 4A C1 37 C9 00 FF FF FD 7E 0C FD 36 0C FF F6 F0 FE FF C8 32 EA 4B C9 CD 29 50 21 EA 4B 7E 36 FF F5 CD 0F 44 3C D6 01 D4 2B 4F F1 CD EF 4F CD DF 4F C3 C7 4F FD CB 0C 6E C0 CD DF 4F CD C7 4F 06 47 C3 91 0D 60 21 28 4C 7E A7 C0 36 60 FD 36 0B F7 FD 36 0A 19 3E 05 C3 1C 2B 00 21 3E 4C 36 FF E5 CD 4C 4C E1 36 00 C9 3A F0 36 3C 20 40 FD 7E 0C E6 20 C0 ED 4B AB 24 18 13 3A F0 36 3C 20 2E CD 79 4F F6 F3 B9 28 05 79 F6 FC B9 C0 FD 71 0C 18 1C CD E2 4F CD A7 4C 38 03 CD A7 4C DA 6D 4D 18 12 3A F0 36 3C 20 06 FD 7E 0C 3C 28 09 CD 29 50 CD A7 4C C3 C7 4F FD E5 CD DC 4D FD E1 FD 36 0B FF C9 3A F0 36 FD A6 0C CD 0F 44 FE FF 37 C8 CD D0 4C D8 F5 CD B6 4F F1 F5 CD 52 44 F1 2A 3E 4C 2C C8 CD D0 4C D8 CD 52 44 A7 C9 2A EE 36 C3 5C 46 FD 7E 0C F6 C0 3C 20 04 FD 77 11 C9 FD 7E 11 A7 28 05 FD 36 0C FF C9 FD 35 11 CD 24 50 21 AB 39 7E 23 66 6F B4 28 0A E5 E5 DD E1 CD 15 4D E1 18 EF CD E6 4F FD 7E 04 EE 10 FD 77 04 C3 C7 4F DD 7E 0A E6 7F FE 0E C8 FE 11 C8 DD 7E 09 4F E6 09 C0 79 EE 40 DD 77 09 C9 3E 90 01 3E 52 FD 77 11 FD 36 0A 10 C9 FD CB 0C 6E C0 CD 2F 50 C3 C7 4F 3E FE 18 0A 3E FD 18 06 3E F7 18 02 3E FB FD 77 0B FD 36 0A 00 C9 3A 84 24 E6 02 18 09 3E C0 01 3E CF FD B6 0C 3C C8 3E 05 CD 1C 2B FD 7E 0A E6 80 F6 11 FD 77 0A FD 36 0F 08 FD 36 04 80 CD B6 4F CD E2 4F FD 7E 0F E6 07 C2 C7 4F 2A EE 36 C3 CA 44 FD 46 08 FD CB 0C 6E FD CB 0C EE 3E 2C 28 1C FD 7E 0F A7 20 10 3E 2C B8 20 2A FD 36 0F 50 3E 04 CD 1C 2B 18 19 E6 07 20 15 3E 2B FD 77 08 FD 36 0F 00 B8 28 0F 18 07 FD 7E 0F E6 F0 28 06 CD B6 4F CD E2 4F CD 29 50 3E FF CD EF 4F C3 C7 4F 21 2F 4F C3 2B 4E 21 1D 4F C3 2B 4E 21 2F 4F 18 39 21 1D 4F 18 34 21 24 4F 18 2F 21 10 4F 18 2A 21 10 4F 18 59 21 F4 4E 18 54 21 01 4F 18 4F 21 55 4F 18 36 3A EA 3D F6 F0 3C 21 6D 4F 28 03 21 74 4F 18 26 E5 CD DF 4F 18 0B E5 CD DF 4F CD 29 50 3E FF 38 03 CD 7A 50 CD EF 4F E1 3A E9 4B 3C CA C7 4F CD 50 4E C3 C7 4F E9 E5 CD 29 50 E1 CD 50 4E CD DF 4F CD 7A 50 CD EF 4F C3 C7 4F E5 CD 97 44 7D E6 0F 20 C4 CD 29 50 E1 CD 50 4E CD DF 4F CD 7A 50 CD EF 4F C3 C7 4F 00 3E 01 CD 1C 2B CD DF 4F FD 7E 11 47 CB 5F 28 3C 1F 1F E6 3C 4F 0F 81 ED 44 C6 C0 FD BE 07 30 16 2A EE 36 CD 31 2E FD CB 0B A6 30 02 28 41 CD B6 4F FD 35 07 18 39 21 81 4E 7E A7 20 02 36 02 35 20 2D 78 EE 08 FD 77 11 E6 08 18 23 E6 07 87 4F 87 81 ED 44 C6 BF FD BE 07 38 DB 2A EE 36 CD F6 2C 30 02 28 0A CD B6 4F FD CB 0B AE FD 34 07 C3 C7 4F CD 97 44 7D E6 06 FD BE 10 28 F5 18 2A CD 97 44 7D E6 06 F6 01 FD BE 10 28 F3 18 1B CD 97 44 7D E6 07 FD BE 10 28 F5 18 0E FD 7E 10 D6 02 18 05 FD 7E 10 C6 02 E6 07 FD 77 10 C9 FD 7E 10 C6 04 18 F3 CD 29 50 CD 79 4F 3E 18 BA 38 0E BB DA 4F 4F 79 CD 0F 44 FD 77 10 C3 59 4E CD DF 4F C3 C7 4F CD 79 4F 7A BB 06 F3 38 03 7B 06 FC A7 78 20 02 EE 0F B1 CD 0F 44 18 BE CD 79 4F EE 0F 18 F4 CD 79 4F 18 EF CD 3B 2B 11 05 00 19 7E 23 66 6F 0E FF 7C FD 96 06 57 28 0D 30 04 ED 44 57 37 F5 CB 11 F1 3F CB 11 FD 7E 05 95 5F 28 0F 30 04 ED 44 5F 37 F5 CB 11 F1 3F CB 11 79 C9 CB 01 CB 01 79 C9 3A E8 4B CB 47 C0 F6 01 32 E8 4B 2A EE 36 C3 A3 1C FD 36 0C FF 3A E8 4B A7 C8 CD B6 4F 2A EE 36 CD E9 3A 2A EE 36 C3 EB 1C CD 8E 50 CD 8C 37 D0 3A E8 4B F6 02 32 E8 4B C9 FD A6 0C FE FF 32 E9 4B C8 CD 0F 44 FE FF 32 E9 4B C8 F5 32 E9 4B CD D0 4C C1 3F D2 1F 50 F5 B8 20 05 3E FF 32 E9 4B CD B6 4F F1 CD 52 44 37 C9 3A F0 36 3C C8 3E 06 C3 1C 2B FD CB 0C 66 28 35 2A EE 36 CD F6 2C 30 16 3F 20 07 FD CB 0C 66 C0 18 23 FD CB 0C 66 37 20 05 FD CB 0B A6 C9 F5 CD B6 4F FD CB 0B AE FD 34 07 3E 03 CD 1C 2B F1 D8 FD 34 07 37 C9 2A EE 36 CD 31 2E FD CB 0B A6 30 02 3F C8 CD B6 4F FD 35 07 37 C9 FD 7E 10 C6 86 6F CE 50 95 67 7E C9 FD F9 FB FA FE F6 F7 F5 FD 4E 10 CB 49 FD CB 04 A6 20 04 FD CB 04 E6 FD 7E 0F A7 C8 CB 51 4F 28 07 CB 59 C0 3E 08 18 04 CB 59 C8 AF A9 E6 0F A9 FD 77 0F C9 FD CB 0C 66 C0 18 23 FD CB 0C 66 37 20 05 FD CB 0B A6 C9 F5 CD B6 0C C0 02 CE 77 33 96 4F 26 92 FE 3F C0 07 C1 C0 43 E0 01 FF C0 12 C2 16 D2 FB 3C 7D CF 27 FC 0A 69 75 9A 3C E6 FC 7F 80 08 C3 16 CA 77 3C 9F F1 FE 0B C4 C3 23 E1 E1 C5 B6 9F CF F8 FF 0C C5 0E C6 75 3B 9E 4F 67 D3 FE 3F C0 08 C6 17 D2 79 34 97 F1 FE 0E C7 0E CB 73 79 5D 1F 4F CB EB EE FF 8F F0 0E C8 0E CA 74 FB 5E 2F 5F B3 CB DD FF 8F F0 0C C9 C8 03 87 62 79 DF 6F 8F FC 7F 80 08 CA 18 D2 79 34 97 F1 FE 09 CB 00 CE 79 3C 7D BF F8 FF 0C CC 16 D0 F8 BC 7E 4F 2F 9B FE 3F C0 0F CD 02 F2 F9 74 B6 3F 1E 8E C9 E4 D2 5F C7 F8 08 CE 1E D1 F9 34 B7 F1 FE 10 CF 30 CC F7 BA BD DF 2F 33 D9 DC ED F6 BF E3 FC 12 D0 CA AB E5 5B F2 95 F9 49 70 DD B4 C6 13 0E 9F 8F F0 08 D1 24 D2 79 34 97 F1 FE 0B D2 CC 63 E6 41 F1 03 F8 82 7F F0 0E D3 0E D0 F8 BC 7E 4F 2F 9B CF E0 FF 8F F0 08 D4 05 D2 79 34 93 F1 FE 0A D5 0F 4E 75 9F 1F CB DF 8F F0 0E D6 38 F1 E9 34 BB F0 1F A3 F2 79 7F E3 FC 0E D7 39 F1 E9 34 BB F0 1F A3 F2 79 7F E3 FC 0B D8 D7 8B EB CB F5 9D FA CD 7F F0 10 DA 39 CA 67 34 9A CD F8 0F EA 77 3C 9E CF F8 FF 10 D9 38 CA 67 34 9A CD F8 0F EA 77 3C 9E CF F8 FF 10 DB 3A FC EE B6 5F 4F F8 3B FD EF 36 3F 3F F8 FF 00 1A 12 01 61 FC 05 92 07 20 CA FA BF E0 93 0F CF CB D7 E7 33 A9 DC E7 73 FF 1F E0 0B 1D 01 E1 08 05 B0 07 CB 03 FF 80 0C 22 05 21 08 24 4B 95 F1 7D 7F E3 FC 1D 24 00 E1 10 3C 3F 38 E2 73 FC 03 3C F8 57 72 1D 16 87 11 FF FF 81 6D 17 0F 89 FF 1F E0 08 26 0F A1 08 05 96 07 FF 10 2D 03 A1 04 25 B4 2F 0C 97 70 FB 77 D9 EB FF 80 1A 32 00 E1 08 24 4B AF F0 7F C0 76 EB D3 D9 EC 76 FC 7E BF A7 D7 CB E7 FF 8F F0 12 35 0F E1 21 85 8A 3E C5 1F 85 64 79 3C CE 6F FC 7F 80 09 36 0F E1 00 A4 25 0E FF E0 0B 3C 03 A1 28 05 B4 2F D9 0B FF 80 12 3D 03 A1 40 94 19 36 E7 10 ED B4 2F 0F E7 7D BF E3 FC 08 3E 0B 61 09 05 B2 1F FF 10 43 0C 21 C1 05 9D D7 CE 0B 8F 69 EC DA 5F F8 FF 0E 45 09 32 40 0B 81 87 C1 03 80 EC 3F E3 FC 0F 46 0E 72 41 0A 5D 09 E5 FB 4F 1F 53 FE 3F C0 1F 47 08 32 01 0A 09 37 E2 33 5E 15 33 E3 B0 CF 82 07 0E C9 F4 BF E0 0B 19 8C AA 55 32 9F F1 FE 0D 4C 0E 21 00 25 B2 17 DA 17 E5 81 FF C0 0D 4E 0F 21 00 25 B2 17 DA 17 E5 81 FF C0 08 81 0F 61 40 05 96 07 FF 10 82 01 E1 1F 8C 1F 38 24 9B 85 C4 F2 31 3F 1F E0 0D 84 03 E1 08 05 AF 0F D7 9B E5 81 FF C0 0B 85 01 A1 08 05 B0 07 CB 0F FF 80 06 87 0F E1 48 05 FE 08 88 0F A1 01 05 96 07 FF 06 92 07 61 48 25 FE 08 93 0C 61 41 05 AF C7 FF 08 94 00 A1 49 25 9E 47 FF 08 95 00 E1 49 25 9E 47 FF 0B 96 0D 21 41 04 1F 1A FA FC 7F F0 06 97 07 61 09 25 FE 08 A1 0F 61 40 05 96 07 FF 0D A2 00 21 03 25 86 24 CC 9E 67 45 FF C0 0D A4 02 61 00 25 AC CF D6 7B E5 81 FF C0 0B A5 01 61 00 25 B0 07 CB 03 FF 80 0B A7 0E 21 C0 24 19 31 F9 C0 FF F0 0B A8 00 61 01 05 B0 07 CB 03 FF 80 08 B1 02 5B 08 07 96 07 FF 19 C1 00 1B FC 26 23 1E B9 CF 72 4C C7 83 B3 E1 F3 CF 23 F1 E8 F7 7B 7E 3F C0 1A C2 01 5B 81 8C 3F 08 E1 F8 FC 7F FC 08 6F F8 1F F0 49 BC EF F9 FC 1D 8F F8 FF 14 C3 0F 1B 01 06 43 A6 EF 7F C1 26 38 3C 4E 6B 5D 76 D7 F1 FE 1E D1 0B DB 00 26 03 2A 01 F9 2E 8F B3 FE 08 F2 59 1D 65 B7 7E 09 35 46 85 4B BF D7 3F 1F E0 19 89 41 78 40 02 1D 38 E0 10 0F 82 47 C1 A3 83 68 3E 1E 8E C7 43 91 FF 1F E0 10 8A 43 F8 01 02 01 3E E0 58 62 33 1A 8D FF 1F E0 0B 61 59 38 14 0E 2D B3 FA 7F C7 F8 0E 64 51 78 10 0E 2D 3B E2 F3 DE 09 3F FF E0 09 71 53 40 00 22 01 3E FF E0 11 74 54 80 04 3C 03 A3 E9 FF C0 B6 CF F7 C3 FF 8F F0 0F 84 54 80 80 1C 2F 13 E2 DA 5F 1F 0F FE 3F C0 06 85 5E 00 09 03 FE 11 95 55 00 08 22 1B 0A E2 13 AE 37 9D F2 7A BF E3 FC 0B A5 5E F8 00 3E 2D 8B E6 7F C7 F8 0E 24 6F 00 A4 03 8E 07 16 CF 79 BB DB F1 FE 08 25 62 78 01 8F 88 2F FF 15 30 61 C0 80 0D 8C FF C6 1F E2 07 C5 B7 F7 FD 07 83 41 7F 1F E0 0D 31 65 40 11 02 03 1D F9 50 F1 18 EE FF 0D 34 6F 00 14 13 8E 07 0A CD F9 3F E3 FC 06 41 66 40 48 23 FE 08 42 6E 00 21 03 8A 07 FF 08 43 6E 00 40 83 8A 3F FF 13 44 61 F8 49 2B 88 05 C4 1E E2 03 F1 01 D8 83 6C 41 BF F8 12 45 6C C0 E3 8C 2F 9C 92 4F C0 B6 7E 4F 18 90 4F C7 F8 08 46 6F C0 49 03 8E 07 FF 16 47 69 80 01 02 33 1F E3 51 4D 82 07 02 CA 55 39 94 CC 67 FC 7F 80 0B 51 66 C0 48 22 1F 94 E9 FF C7 F8 19 52 60 80 01 8C 23 03 C2 10 6C 2F BB FC 7F C0 B6 FF 8D C3 E0 76 3C 1F F1 FE 06 54 67 00 08 23 FE 06 56 67 40 08 23 FE 09 61 69 00 00 22 09 33 FF E0 0E 64 61 40 00 22 19 18 E2 32 7E 09 3F FF E0 11 66 61 00 40 22 39 C7 FF FE 3F E0 77 37 E4 FF 8F F0 0B 67 6F C0 25 02 33 0C F9 00 7F F0 08 68 6F C0 40 83 90 07 FF 1C 69 61 80 1D 02 0D 16 80 91 1F 95 B7 CA CB 8A E4 DA 8D 57 F8 16 C9 44 E2 91 59 F8 FF 08 77 6F C0 40 13 90 07 FF 10 78 68 80 C1 02 37 64 E1 72 3A 0B A3 F1 EF C7 F8 06 79 6F C0 09 23 FE 15 89 60 00 10 3C 2F 26 F9 41 FC 41 38 B6 8F F9 FB E2 70 FF E3 FC 0B 99 6E 78 00 4E 2D 8C E5 FF C7 F8 12 A5 6E C0 FC 02 09 0B E2 32 4E 17 92 F5 7B 7A BF F1 FE 06 A6 6D 80 41 03 FE 0B A7 6D C0 41 02 03 21 E3 76 3F FE 0B A8 6E 38 01 8E 2D 99 F0 FF C7 F8 1D B5 63 40 04 3C 0D A5 F6 FF 7E BF F0 13 8B F1 F8 7F E0 23 13 D9 FF 81 6C 1F 13 FE 3F C0 1C C5 63 40 00 1C 2D BE FE FF 3F E0 23 69 F3 F9 7C 7C 3D 3E AF FC 03 64 79 BC 5F F8 FF 16 05 7F 78 10 0E 09 0E E1 3B 6F 9F D3 EB FF 00 D9 EF 37 BB FE 3F C0 1A 14 70 80 80 0C 17 39 F8 79 7C 3C 7E 20 7C 4E 47 C5 21 D8 27 75 79 BC 5F C7 F8 0B 15 74 00 15 22 15 02 E2 B1 CF FE 0B 25 72 40 00 22 19 31 E0 93 91 FE 15 98 70 C8 48 0A 1D 3F E2 FB FC 06 FC 0B 60 79 1F 7F F7 FC 7F 80 06 99 7E 48 01 0B FE 09 A8 7E 08 14 2A 17 09 FF E0 14 B8 70 48 10 3C 27 38 F8 49 7C 2B 78 B6 F3 FB C2 E1 FF C7 F8 08 BA 73 F8 08 0B 96 07 FF 06 C8 76 C8 40 2B FE 10 C9 7D 88 41 0A 1D 9B ED E8 F4 99 CC E7 FC 7F 80 0E CA 70 88 41 2A 19 3C E3 38 0E 3F FC 7F 80 08 CB 7E 08 09 0B 92 07 FF 10 DB 72 48 08 2A 4D 23 E4 39 EF 37 2F E7 FF 1F E0 0B EB 78 38 00 3E 2D 8C E5 FF C7 F8 0B 04 81 80 A0 02 03 24 E0 10 0F FE 0E 05 8F 40 01 02 1D 31 E1 33 2C 09 0E 1F E0 19 09 83 B8 10 1C 0D 06 F9 8C 71 79 4F 25 8E EC CA 39 0E 67 B3 9D EA FF C7 F8 19 0B 83 38 04 3C 2D 39 E0 33 1F 99 07 06 D3 7B BF DF 6F F8 0B C4 F4 7F E3 FC 1D 19 81 F8 48 61 99 04 0E C4 92 08 1F F0 0B 89 44 22 79 38 9A 4C 25 B1 D0 C4 52 1F E3 FC 17 1A 8D 78 E1 01 9C 07 CE E3 93 49 39 1E 7E 4F 3F 04 99 E9 34 FC 7F 80 18 1B 83 38 01 9D 88 2F 17 87 70 68 37 01 D3 7F 7F E0 5B 7D D6 F1 7F C7 F8 0F 29 80 80 00 21 9B EF C1 3F E5 B7 F2 DD FF E0 08 E9 81 00 48 01 96 07 FF 15 EA 8C 78 43 0A 43 98 F0 7F C0 B6 6F B7 9B 91 D8 E4 7A 3F F8 FF 09 EB 88 38 09 0A 09 0B FF E0 10 F9 8F B8 24 3C 0D 36 E2 D8 BE 67 3B 9B FF 1F E0 19 FA 89 B8 00 8C 2F 27 F9 88 F2 59 0E C5 17 E6 53 C2 36 1F F0 2D 88 FF 8F F0 13 FB 84 F8 1C 21 9C FF 11 9E E0 A9 EF 1E DE 7F 37 7F F1 FE 09 03 91 9B 0C 0E 09 1C FF E0 11 11 9B 1B 08 07 98 7C 00 94 30 3C BF A3 DF FF 1F E0 06 13 96 9B 08 27 FE 0F 20 9D DB A0 0F 99 CF CC 07 8E E6 B4 5B F1 FE 0E 21 90 1B 43 67 9D 3F 16 CC 76 23 1B F1 FE 13 22 9D DB 81 8C 5B 1E E1 DA 3F 1E 6F 7E 05 B3 FD 8F F8 FF 13 23 91 9B 01 BC 5B 0C E1 D9 FC FF E3 7E 05 B4 1C 4F F8 FF 11 03 A1 99 00 0E 09 1C FA 40 71 7D 27 B3 E9 FF 1F E0 0C 0D A3 D3 80 0E 2D 86 F3 77 BF E3 FC 09 0E A8 53 41 28 63 24 FF E0 0F 0F A8 93 01 28 23 77 D8 A0 FC 50 BE 28 7F FC 14 20 AD DB 00 0E 07 21 D9 9F FC C1 F8 EE 77 3B 65 D2 DF C7 F8 0D D0 A8 D3 09 08 23 4C E3 31 CF 82 37 FF 11 DE A1 D3 80 0E 2F 2F E2 DA 7E FF FF FB C7 FF 8F F0 06 DF AD 93 41 09 FE 1F E0 A8 53 08 29 8A 37 C5 13 E2 8B C5 E5 0B 31 75 8C 9E 21 D7 F7 FF E0 5B 40 B7 EB E5 FF E3 FC 08 F0 AE 93 01 29 8E 07 FF 0D FE A0 13 90 0C 2F 3E F9 8F FC 40 FF F8 06 FF AB 53 49 09 FE 18 03 B1 99 00 0E 47 20 1A 40 72 4D 1B 91 FE 05 F4 26 24 E4 52 99 BF 1F E0 09 0D B3 D3 00 0E 09 06 FF E0 0B 10 B0 9B 08 27 A0 07 CB 17 FF 80 12 20 BD DB 00 26 23 20 F9 9C BC C0 58 EE 69 44 BF 1F E0 0C 2C B7 D3 80 0E 47 83 EE 79 3F E3 FC 0B 2D B0 13 41 09 A0 07 CB 03 FF 80 16 2E B1 93 01 08 49 1C 21 71 B9 A3 C4 D1 FF E8 F1 C4 77 7C 3F F8 FF 17 DE B1 D3 00 0E 09 3D E0 59 FA F9 7D FE 05 B7 97 AC 38 3F F1 FF 1F E0 1D 03 C1 9B 00 3E 55 3E C1 53 FC 2F 09 FA 40 71 6C 7C 5E F0 79 7D 3E EF 73 B6 FD FC 7F 80 0B 0C CD 13 E0 0E 2D 9F 93 CF C7 F8 0B 0D C3 D3 01 08 39 03 E0 90 6F FE 0B 2C C7 D3 00 0E 09 03 F8 80 7F F0 0B D1 C1 DB 10 0F 88 07 C4 1F FF 80 0C D4 C6 5B 10 0E 49 BC FD F8 FF E3 FC 08 DC CF 93 10 0F 98 87 FF 14 DE C1 D3 14 0E 09 38 E2 DB AC 78 1C BF 47 63 FF 37 7B F1 FE 10 E1 C8 1B 20 26 01 28 62 D2 F8 2F 2E 99 87 CF F0 12 E2 C8 1B 80 86 07 13 E0 12 F7 98 7C 17 D7 CB A7 E3 FC 12 E3 C0 DB 4B 07 A3 1F C3 12 0F 32 20 9B 07 00 EF C7 F8 0B E4 CE 1B 01 26 63 36 9A 29 7F F0 12 EC CF 53 20 3C 1D 15 E0 70 AC 55 56 F9 88 7C CA 3F F8 0E ED CF 53 80 8D 98 87 16 C4 F9 BB DF F1 FE 06 EE CE D3 03 29 FE 0E F3 C4 5B 14 26 15 1C E2 39 BF 27 FC 7F 80 16 03 DF 99 00 06 23 23 C0 31 CC 17 92 F5 75 7B 7E 3F 27 73 FE 3F C0 06 0C DD 13 08 09 FE 16 1C D3 93 08 28 23 26 FA 2E F0 D8 8E 24 DC CE 5A 3D 9F 8F FC 7F 80 1C 2C D7 D3 00 28 03 14 41 51 BE 1F AC 5A 3F 27 77 F0 49 94 6E 39 27 9F 4D 65 FC 7F 80 08 88 D0 13 40 09 96 07 FF 19 89 D1 93 E1 88 03 1E 79 C0 71 1C D7 8B FE 09 33 1E 0E F4 9A 3F 27 9F 8F F0 09 8A DC D3 C1 08 03 24 FF E0 0F 8B D0 93 09 09 A0 07 16 CE 79 3B 7E 3F F8 FF 08 9B DF 13 48 29 8E 07 FF 0E 9C D1 93 1D 09 95 C7 28 CE 44 BA 5B F1 FE 15 AB D1 93 E0 6C 53 80 94 4F E7 53 89 F8 16 CF C9 E0 90 39 F8 FF 0D AC D1 D3 09 29 A0 07 11 CA 7B 3F E3 FC 10 BC D4 53 08 28 07 3A E2 D0 46 01 04 58 80 BF F0 12 CC D1 53 FC 28 3D 3C 99 CF 7C 30 E0 B6 5F 2F FF 1F E0 06 CD DC 93 41 09 FE 18 CE D1 13 1D 08 09 07 E5 12 66 27 17 D8 A1 CC 2F F8 76 9A 2F CF FF 8F F0 11 D1 D1 DB 00 0E 09 03 F8 81 F0 BD FE DF 5F BF 1F E0 09 D4 D6 5B 00 0E 09 23 FF E0 19 DC DF 93 00 28 43 31 E0 33 10 2F B1 BA 3F C0 B6 C4 E7 32 59 6D BE 9B F1 FE 15 DE D1 D3 00 28 2D 07 20 30 70 2B 01 E4 F0 0A 01 04 59 90 BF F0 17 8A E0 B2 80 0E 43 1C C2 FA 4F 67 7B FE 05 B6 9D CE EF 7F CF FF 1F E0 10 8B E0 32 01 8F A6 47 2D 97 E1 6D FF 63 FE 3F C0 0F C3 EF 1B A0 0E 57 4C D8 A0 72 4D 8F FC 7F 80 11 C4 E8 1B 1D 06 39 B5 F9 FF C1 26 D3 E9 B4 9F 8F F0 1E D1 E1 DB 00 0F 86 9B 17 88 E2 A9 FE D2 03 85 E2 61 37 F0 2D BF 8F A5 D0 E0 F2 4E FC 7F 80 14 D4 E6 5B 00 26 49 A3 15 9C DF 6D 4B F8 0A CA 45 32 9F F1 FE 08 00 F2 72 08 0B 96 07 FF 1E 10 F1 B2 14 3C 3F 4F E2 D8 4E 1F 9F F9 BB DF 80 EC 06 23 01 C7 E3 E1 B7 1D CE D7 FC 7F 80 10 20 F5 72 1C 7C 09 23 E2 DB BF E7 13 87 FF 1F E0 13 30 F0 B2 FC 2A 23 27 C2 D9 FB 3F 7F 3F FB FD EE E7 E3 FC 0B 31 FA 32 C1 0B 9D D7 CE 0B FF 80 13 32 FF B2 25 8C 2F 1C E2 DB 6E F7 2F 99 C9 F0 F6 7F E3 FC 18 33 FF B2 10 8C 2F 8C F9 FB 7F E0 5B 63 F5 EE F7 B9 DC AE D7 67 FE 3F C0 11 40 F6 F2 04 5C 2D BC FA 7B 3B 75 3A 5D 0E FE 3F C0 11 42 FF B2 80 1C 2F 1C E2 DB 1F 57 6B BD CE FF 8F F0 10 43 FE F2 81 BD 98 07 17 89 F1 6C DF 2F FE 3F C0 06 44 FD 32 61 8B FE 10 45 F9 32 E3 0E 5B 10 9A 78 51 6C FC 62 7E 3F C0 15 46 F1 B2 41 0A 15 3C A3 BB DF DF FC 0B 6F 77 9B 4F DE FC 7F 80 12 47 F8 32 12 0E 2F B5 F8 FF C0 B6 83 E1 F3 FB FF C7 F8 14 50 F6 F2 10 1C 2F A4 FA 7B 3A 9F F0 2D BC EE 73 38 9F F1 FE 12 57 F4 72 04 2A 37 B2 F1 F5 3F E0 3B 6B E5 EA FF C7 F8 06 60 FB B2 24 2B FE 0D 61 FB B2 40 8A 15 14 C2 31 4F 83 CF FF 06 62 F4 B2 49 0B FE 17 63 F1 F2 01 0A 23 24 E2 F3 98 4B AA F2 F4 FF E0 5B 70 BC BF EF C7 F8 13 67 F4 72 08 1A 23 24 C4 3A AF AF 93 AB CC E5 76 FF E3 FC 18 70 F9 B2 08 1A 03 26 D9 4A 4C A5 38 56 BB 3D BF 02 D9 EF 37 BB FE 3F C0 0B 72 F6 72 08 2A 23 23 F8 A0 7F F0 14 77 F4 B2 08 2B 8A 0F 1B BA 70 EC 5F 8B A7 DB F5 FC FF E3 FC 0E 80 F1 72 A0 5C 2F 23 E2 DA 7E 1F FC 7F 80 17 81 F9 F2 A1 8C 5B 18 E1 DA CF 66 D3 29 CC CA 6F C0 B6 67 BF BF 1F E0 08 82 FE 32 41 2B 92 07 FF 10 83 F9 B2 05 0A 2D 0F 81 D3 2F 81 87 C1 03 FF 80 0D 87 F0 F2 48 6B 9D EF C4 1E 62 01 3F C0 1A 88 F1 32 E1 8C 27 36 C1 50 4D 84 AF D3 83 E2 85 C5 B5 1D 8F 07 9F 3F BF 1F E0 06 89 FC F2 41 0B FE 19 8B F0 32 01 0A 15 01 F8 80 4C 50 38 24 FF 80 68 FB 7F F0 1D 84 FE 7F C7 F8 17 93 F9 B2 40 1A 1B 29 F8 18 7C 10 38 76 CB D5 DB ED E6 EA 3C AF F8 FF 10 94 F8 32 C3 0A 5D 24 E0 31 BE 33 A3 EE 7F C7 F8 0B 95 F0 32 41 0A 63 1C C1 D1 CF FE 0F 96 F0 72 41 0A 19 3F E1 D8 BE 1F 4B FE 3F C0 06 97 F6 B2 03 AB FE 11 C3 FF 19 00 0E 47 33 44 9B 11 B5 D9 DD CE FF 8F F0 1A D1 F9 D9 00 0E 09 10 F9 94 7C C4 38 1E DB 6F BF 02 DA AF BF C3 91 CF FF 8F F0 0F 41 01 E1 40 05 AF 2F D7 8B E5 B7 F2 DD FF E0 12 42 01 21 41 65 AC EF D6 6B 8B 60 E0 50 2E 16 FC 7F 80 0B 44 02 61 01 25 B2 17 25 9D FF F0 08 34 04 A1 48 25 B4 37 FF 0D 14 09 61 19 05 B2 1F 11 98 7C E5 FF F8 0B 13 01 A1 41 05 B0 07 CB 03 FF 80 25 9A F1 B2 00 2A 37 17 DA 2E 4D 17 38 BC 87 E5 75 F3 37 F9 80 F1 5D C1 AF FE 02 B3 FB F0 2D A0 EF F5 BA FF F1 FE 12 8A F0 B2 FD 0A 5D 24 E2 B8 9F F8 16 CF D7 FB FB F1 FE 19 00 B1 9B 0C 07 A3 24 03 9C 42 88 FA D1 93 80 4B D9 26 23 F1 67 6F BF C7 F8 00 06 79 11 E8 60 0F FE 0B 7A 18 68 21 01 8A 0F C5 1F FF 80 0B 7B 18 68 40 80 6F 0B F8 A0 7F F0 0B 7C 1A 28 82 00 23 9C F1 FF C7 F8 0B 7D 11 A8 02 8E 09 1B FA 40 7F F0 15 77 29 28 FC 00 23 09 E0 B9 FA FE 7F FE 00 F6 3D 3F 27 FC 7F 80 14 78 21 68 43 80 03 39 62 73 D5 85 57 05 DC CE A7 73 D7 F8 FF 08 79 21 E8 19 01 9C F7 FF 0F 7D 21 A8 04 0D AB FF D5 FF 02 46 FE 90 1F FC 0D 87 26 A8 08 20 1F 9C F2 76 FC 7F F1 FE 19 89 27 A8 04 20 69 2B BA 87 FD 42 39 16 CE 69 3F 00 BA 3F 65 EE 79 3F 1F E0 06 97 21 E8 00 7F FE 19 99 27 A8 08 11 A9 87 34 D5 E4 F7 E0 17 57 CB 81 C3 20 91 3A A5 4F FE 3F C0 08 9D 27 28 08 61 A9 3F FF 08 A9 2E 68 48 61 9D 7F FF 0D AA 24 E8 41 00 23 3D E0 B0 5F A9 0E FF 06 AB 2D 68 41 01 FE 16 AC 28 E8 82 0C 5B 1F E0 B9 BE C7 FC 07 E3 F1 1B 5D BF 73 FE 3F C0 06 AD 2E A8 E1 21 FE 17 AE 26 68 09 00 45 03 A0 72 BE 1F 03 E0 B8 CA 24 2F 17 CC C6 7F C7 F8 12 B9 27 E8 08 20 37 73 E1 FA 4C E6 B3 C9 DC EA 7F C7 F8 12 BE 20 28 08 40 4B 20 E6 72 9E 0B AF EB 76 FE 3F F1 FE 14 C9 23 28 10 4C 45 A9 94 DA 75 3F 9D CF FC 02 E0 FF 9F F1 FE 15 CB 24 68 B4 00 1F 05 E6 75 BC 2B AC F2 7F C0 2E 6F F7 FF 1F E0 09 CD 23 E8 61 80 6B 23 FF E0 09 CE 2B A8 41 20 67 23 FF E0 12 CF 21 68 0B 00 17 9B EE 7F C0 2E 62 21 10 A8 7F C7 F8 0E D8 29 A8 C0 00 03 1A E2 3A 0E DF FC 7F 80 06 D9 24 A8 09 21 FE 0B DB 25 A8 08 20 33 A4 ED FF C7 F8 08 DF 25 28 08 61 9D 3F FF 11 E9 20 28 14 5C 45 80 EC 7E 3F E0 17 77 C4 FF 8F F0 0B EB 27 28 D8 20 0B BB DD FF C7 F8 0B EC 28 E8 42 00 6D B3 E6 7F C7 F8 24 ED 2E A8 22 8C 65 0B E1 F8 DB B5 26 FE 01 F6 BE DF 2F 57 BB FF 00 D9 9E 8F 27 FE 02 71 BC CE 57 DB FE 3F C0 1E EE 2E A8 A0 8C 65 34 E1 FB 1B 95 BA ED 7F 01 3B 1F 97 CF EB F6 FF 80 6D 77 9B BD FF 1F E0 0B EF 20 68 03 21 A9 E7 CB 0F FF 80 18 F9 21 A8 40 21 82 17 0F D1 F7 3F E0 47 37 E4 FF 80 2E BD 5F 2F FF 1F E0 06 FA 2D E8 41 01 FE 13 FB 23 68 01 20 17 3E E2 B2 4E 0B B9 FC EE 6F 33 97 F8 FF 1A 97 31 E8 00 0E 0D 8F E3 FF C0 46 03 83 C2 E1 F1 38 BC 6F F8 00 CF F9 FF E3 FC 09 97 41 E8 08 00 09 00 FF E0 1C A7 43 A8 00 20 05 24 E6 72 3F A8 06 11 D0 F9 7F E0 0F 03 F9 FF 80 5D 22 92 7E 3F C0 06 3B 33 00 09 23 FE 08 1B 3F 80 08 03 96 07 FF 08 39 3E 00 40 03 96 07 FF 09 2B 37 40 08 22 55 24 FF E0 16 4A 37 C0 14 23 86 FE C3 63 07 6B 2D 92 C7 5B FC 0B 6A FD 9F F1 FE 15 4B 31 40 E0 7D 8C DF C6 7B E3 19 F1 A4 E2 DA 78 1C 12 7E 3F C0 17 4C 30 80 09 02 55 3A E6 F1 2F 8E 07 0E CB 6C B4 7D CE BE EB 7E 3F C0 14 5C 32 C0 10 33 8A 2F C5 0B 87 67 7C 5F F0 23 A5 ED 7F C7 F8 13 6C 3F 40 03 A2 6D 24 E2 D1 97 98 03 0B C7 76 7E BF F1 FE 24 69 31 80 FC 02 23 24 E2 D0 8E 2B 08 C5 70 9C 09 09 E2 D9 7E FD EE 79 08 FF 80 EC 0F 07 15 CA C8 F4 77 E3 FC 1B 8A 39 80 41 02 37 DA F2 FF C0 76 B7 39 F3 E6 74 B4 7F 2E 97 2B 9B ED FA FF C7 F8 17 58 30 C0 83 0C 17 3C E2 F8 4E E7 73 7E 05 B4 11 88 07 7F CF FF 1F E0 19 57 31 00 40 72 6D 38 C3 12 3A 17 A3 5C 7F C0 B6 11 86 E3 71 C8 F4 7F F1 FE 09 47 34 40 08 22 7B 1B FF E0 14 3A 31 80 DB 82 03 00 58 82 31 6D 3F 7F BF 9E F3 D9 F7 E3 FC 1D 8E 35 F9 00 86 76 8D E5 7A 5E 77 AD FE FF AE FC 1D 23 71 5C 97 1D CB 77 AD EF 3F 1F E0 19 5A 38 40 0B 22 17 30 E2 32 2E 2D A0 8C 4F C0 76 CB D5 E3 ED F4 B9 5F F1 FE 2B 8D 31 F9 20 06 2B 10 E7 55 8C 77 58 F9 8F FD B0 FE D8 FC 5B 1F D7 EB E7 FF FF EF F8 3C C8 E4 72 39 1C 8E 47 7E 09 32 19 1D F8 FF 1B 59 3B 80 41 02 35 14 82 B1 BF 80 44 C1 E3 85 EA FA 87 F0 05 94 4E 25 1B 93 F1 FE 10 79 34 00 08 22 6F 64 F9 00 70 ED 57 B7 FE 3F C0 0D 69 21 80 00 0E 2D 07 E2 F0 6F 88 2F FF 12 6A 38 80 C1 62 23 AF F8 7F C0 B6 7E CF 6F DB FF C7 F8 1A 37 31 80 0C 02 23 1B E7 D1 EC 1D 8F E7 7B FD DD EF 36 9F 2D 97 CF D7 F7 E3 FC 22 6B 39 00 83 0D 98 8F 1E C8 54 74 9D 4E 97 FC 07 6D E6 D7 5B F8 16 D8 F6 24 11 FF 3F CE E6 F3 DF 8F F0 08 CC 2C 28 C1 01 9C 17 FF 19 89 31 C0 E0 22 23 3E C2 73 88 57 3E E2 D3 8B 88 1F 14 C8 FA 7D 9D 4F F8 FF 25 8B 30 40 01 8D 8D CF C6 67 E1 89 C0 22 F8 7B 01 C3 E3 E1 F8 DF F0 2D B8 FC 6E 25 1D 7F F8 24 C7 D5 AB F7 F1 FE 08 8D 21 A8 14 1D 88 07 FF 00 00 00 00 00 00 00 00 00 00 00 00 00 00 00 00 00 00 00 00 00 00 00 00 00 00 00 03 03 03 03 FF FF 0E 0E 00 00 39 38 55 00 E2 E0 2B 00 85 80 55 00 82 98 2B 00 01 3C 55 00 00 24 00 00 49 09 15 15 9E 1E 80 80 57 17 55 40 AF 2F 4B 40 33 33 A5 A0 AC 2C AB A0 2F 2F 45 40 96 16 B3 B0 40 00 50 50 9E 1E E9 E9 2F 2F E8 E8 6F 6F 6B 68 9F 1F 65 60 6F 6F 6B 68 6F 6F 65 60 6F 6F 6B 68 5F 5F 49 48 9F 1F 48 48 4E 4E 89 89 9E 1E 40 40 41 41 C9 C8 5F 5F 93 90 5F 5F 59 58 42 42 C3 C0 1D 1D C5 C0 5D 5D CB C0 2D 2D C0 C0 6D 6D D5 D5 9D 1D 80 80 3C 3C 0B 00 39 39 95 80 02 02 0B 00 1B 1B 95 80 23 23 80 8A 3B 3B 80 95 3B 3B 80 8B 3B 3B 80 95 3B 3B 00 2B 38 38 C0 C5 3B 3B F0 F0 20 20 60 60 1C 1C 00 00 1E 1E 00 00 0C 0C 00 00 00 00 00 00 00 00 00 00 00 00 00 00 00 00 03 03 00 00 07 07 00 00 30 30 00 00 D7 D0 03 03 D7 D0 0F 0F 17 10 3C 3C D7 10 53 50 D7 10 8F 80 DB 18 1F 00 D4 14 9F 00 33 33 9C 00 D4 D0 93 03 17 10 8C 0C D7 10 B3 30 D7 10 8F 00 D7 10 1F 00 D7 10 9F 80 D3 10 1F 00 D4 14 9F 00 33 33 9C 00 D4 D0 93 03 17 10 8C 0C D7 10 B3 30 D7 10 8F 00 D7 10 1F 00 D7 10 9F 80 D3 10 1F 00 D4 14 9F 00 33 33 9C 00 D4 D0 93 03 17 10 8C 0C D7 10 B3 30 D7 10 8F 00 D7 10 1F 00 D7 10 9F 80 DB 18 1F 00 D4 14 9F 00 33 33 9C 00 D4 D0 93 03 17 10 8C 0C D7 10 B3 30 D7 10 8F 00 D7 10 1F 00 C0 00 9F 80 00 0B 1C 00 00 2D 90 00 00 BD 80 02 00 DD 80 0B 00 DA 80 2D 00 D8 00 3D 00 A0 00 DD 00 80 00 DA 00 00 00 D8 00 00 00 A0 00 00 00 80 00 00 00 00 03 03 00 00 07 07 00 00 30 30 00 00 D7 D0 03 03 D7 D0 0F 0F 17 10 3C 3C D7 10 53 50 D7 10 8F 80 DB 18 1F 00 D4 14 9F 00 33 33 9C 00 C4 C0 93 03 17 10 8C 0C C7 00 B3 30 17 10 8C 00 67 60 10 00 87 80 87 87 83 80 1F 1F 84 84 99 19 83 93 93 13 84 B0 9B 1B 07 70 9E 1E 07 F0 9C 1D 07 E0 90 13 07 C0 00 0F 07 80 80 9F 03 00 00 1E 84 84 81 19 83 83 87 07 84 80 9D 1D 87 80 9C 1C 87 80 99 19 87 80 8D 0D 97 90 0F 0F 97 90 83 83 5B 18 18 00 D4 14 9F 00 33 33 9C 00 D4 D0 93 03 17 10 8C 0C D7 10 B3 30 D7 10 8F 00 D7 10 1F 00 C0 00 9F 80 00 0B 1C 00 00 2D 90 00 00 BD 80 02 00 DD 80 0B 00 DA 80 2D 00 D8 00 3D 00 A0 00 DD 00 80 00 DA 00 00 00 D8 00 00 00 A0 00 00 00 80 00 00 00 00 03 00 00 00 0F 00 00 00 3E 00 00 00 D9 00 03 00 67 00 0D 00 95 00 36 00 76 00 D9 00 F0 01 E7 00 E0 07 97 00 80 1F 76 00 60 6F D1 01 F0 F7 67 07 F8 FB 9F 1F FC FD 0F 6F FC FC 07 F7 F2 F2 03 FB CE CE 01 FD 3E 3E 00 FC FE FE 00 F2 FC FC 00 CE 79 79 00 3E 05 05 00 FE 1A 1A 00 FC DD DD 00 7A A3 A3 00 01 5D 5D 00 00 3A BA C0 00 1D 5D C0 00 0B 2B DC 1C 03 13 DA 1A 01 09 DD 1D C0 C4 C3 03 A0 A3 DD 1D C0 CC DA 1A 02 30 DC 1C 0E C0 C0 03 2E 00 C0 0C EE 00 C2 10 ED 00 CE 00 E1 00 DE 00 C5 00 DE 00 05 10 DC 00 65 00 C1 00 F5 00 C3 00 F5 00 C0 00 F1 00 C0 00 0D 0C C0 00 39 38 C0 00 E5 E0 C3 03 80 80 CE 0E 00 00 D8 18 00 00 C0 00 00 00 C0 00 00 00 C0 00 00 00 80 00 00 00 00 00 03 00 00 00 0F 00 00 00 3E 00 00 00 D9 00 03 00 67 00 0D 00 95 00 36 00 76 00 D9 00 F0 01 E7 00 E0 07 97 00 80 1F 76 00 60 6F D1 01 F0 F7 67 07 F8 FB 9F 1F FC FD 0F 6F FC FC 07 F7 F2 F2 03 FB CE CE 01 FD 3E 3E 00 FC FE FE 00 F2 FC FC 00 CE 79 78 00 3E 05 00 00 FE 05 00 00 FC 05 00 00 7A 05 00 00 01 05 00 00 00 05 80 C0 C0 05 40 A0 A0 05 20 DC DC 05 10 3A 3A 01 08 DD DD C1 C4 A3 A3 A0 A2 DD DD C0 CC 3A 3A 02 30 DC DC 0E C0 A0 A3 2E 00 C0 CC EE 00 02 30 ED 00 0E C0 E1 00 2E 00 C5 00 EE 00 05 10 EC 00 65 00 E1 00 F5 00 C3 00 F5 00 00 00 F1 00 80 00 0D 0C 80 00 39 38 80 00 E5 E0 83 03 80 80 8E 0E 00 00 B8 38 00 00 A0 20 00 00 80 00 00 00 80 00 00 00 80 00 00 00 00 00 03 00 00 00 0F 00 00 00 3E 00 00 00 D9 00 03 00 67 00 0D 00 95 00 36 00 76 00 D9 00 F0 01 E7 00 E0 07 8F 00 80 1F 6E 00 60 6F C9 01 F0 F7 67 07 F8 FB 9F 1F FC FD 0F 6F FC FC 07 F7 F2 F2 03 FB CE CE 01 FD 3E 3E 00 FC FE FE 00 F2 FC FC 00 CE 78 78 00 3E 06 00 00 FE 06 00 00 FC 06 00 00 78 36 00 00 00 76 00 01 00 36 00 85 00 C6 00 85 00 E6 00 89 00 E6 00 AE 00 62 00 AF 00 04 04 8F 00 4A 0A B3 00 1C 1C BC 00 6A 68 80 00 B6 B0 DB 1B 66 60 AD 2D 96 80 DB 1B 36 00 80 00 16 80 BE 00 06 60 BF 00 86 10 BF 00 E6 00 8F 00 F6 00 83 00 F6 00 80 00 F6 00 80 00 36 00 80 00 08 00 80 00 06 00 80 00 00 00 80 00 00 00 80 00 00 00 80 00 00 00 80 00 00 00 80 00 00 00 80 00 00 00 00 00 03 03 00 00 0E 0E 00 00 38 38 00 00 E0 E6 03 03 80 9E 0E 0E 00 7C 38 39 02 E0 E0 E7 1E C0 80 9E 3C 00 01 7C F2 02 03 E0 CC 0C 1F C0 32 30 3C 00 CE C0 F3 03 3E 00 CC 0C F2 00 33 30 F6 00 CF C0 3A 00 3E 00 16 40 FE 00 3A 00 EB 00 D6 00 A7 00 3E 00 CF 00 DE 00 EF 00 3A 00 D7 00 FE 00 DF 00 FC 00 F7 00 F2 02 CF 00 CC 0C FF 00 32 30 FC 00 CE C0 F3 03 3E 00 CC 0C FE 00 33 30 FE 00 CF C0 FE 00 3E 00 7E 00 FC 00 3E 80 F8 00 1E C0 F0 01 0E E0 E0 01 06 F0 C0 01 06 E0 C0 03 1E 80 E0 02 7C 00 F9 00 F2 02 FF 00 CC 0C FF 00 32 30 FC 00 CE C0 F3 03 3E 00 CC 0C FC 00 33 30 E0 02 CF C0 C0 1E 3E 00 00 3C FC 01 00 F0 E0 03 00 C0 C0 1F 00 00 00 3C 00 00 00 F0 00 00 00 C0 00 00 00 00 FF FF 03 03 80 80 0E 0E 00 2A 38 39 00 54 E0 E2 2A 00 81 94 54 00 8A A0 2A 00 15 40 54 00 20 00 2A 2A 1F 1F 94 80 7F 7F CA C0 7E 7E 54 40 F9 F8 AA 20 F7 F0 24 20 F1 F0 AA 20 F7 F0 B0 30 F7 F0 A2 20 F3 F0 00 18 30 34 02 B8 00 C7 00 F8 00 7F 02 F8 00 FF 00 F8 00 FF 02 78 00 FB 00 B8 00 EF 02 BA 00 F7 00 78 00 EF 02 50 00 FF 00 E0 00 FD 02 F0 00 FB 04 F0 00 FF 0A E0 00 EF 04 E0 00 7F 0A E0 00 FF 04 E0 00 7F 0A E0 00 BF 14 C0 00 7F 0A C0 00 BF 14 C0 00 7D 0A C0 00 BF 14 C0 00 7D 0A CA 00 BF 14 C0 00 7D 0A C0 00 BF 14 C0 00 7D 0A C0 00 BF 04 E0 00 7E 00 F2 00 BF 00 F4 00 5F 00 F0 00 AF 00 F0 00 5F 00 E0 00 AF 00 80 00 5E 00 00 00 18 00 00 00 00 00 00 00 00 00 00 00 00 02 02 00 00 06 06 00 00 28 28 00 00 66 60 02 02 9C 80 06 06 72 00 29 28 D4 00 67 60 AA 00 9D 80 54 00 7A 00 A8 00 D5 00 50 00 AA 00 A6 00 D5 00 1C 00 AA 00 7A 00 D0 00 C4 00 A6 00 92 10 1C 00 64 60 71 01 80 90 C6 06 00 70 98 19 06 F0 D0 17 04 00 90 14 02 D0 D1 15 00 68 90 12 80 A8 10 16 80 AC 61 0D 00 4C C0 0C 00 0C 80 18 A0 0C C1 18 00 18 80 18 42 18 C0 18 80 30 80 0C 02 70 00 0F 04 E0 60 07 0A 80 D0 00 10 00 AA 00 A6 00 D4 00 1C 00 AA 00 7A 00 D1 00 D4 00 A7 00 AA 00 1D 00 04 00 78 00 00 F0 D0 03 00 0C A0 0C 20 24 C1 19 20 2A 81 31 20 2A 81 21 20 2A 09 69 20 2A 09 49 20 22 09 C9 00 4C 08 4A 00 30 08 C8 00 C0 00 B3 00 00 00 8C 00 00 00 B0 00 00 00 C0 00 00 00 00 22 22 02 02 76 76 06 06 88 88 29 28 54 00 62 60 22 00 95 80 4C 0C 2A 00 1E 1E 51 00 0A 2A A6 06 00 30 5F 1F 80 80 3F 3F D2 D0 BC BC 98 98 D8 D8 92 90 DD DD 48 48 46 46 52 50 1B 9B 98 98 08 08 50 50 87 87 B0 B0 C8 C8 26 20 64 64 C4 C0 4B 4B 22 20 1D 1D C4 C0 21 21 22 20 1D 1D C4 C0 21 21 20 20 1D 1D C0 C0 22 22 0E 00 1C 1C 14 00 00 00 2A 00 0C 0C 14 00 03 03 8A 80 1B 1B C4 C0 3E 3E C8 C0 6E 6E C0 C0 67 67 8E 80 7F 7F 14 00 1A 1A 8A 80 69 69 84 80 31 31 CA C0 38 38 C4 C0 18 18 80 80 1C 1C 66 60 08 88 44 40 04 64 22 20 0C 4C C4 C0 10 51 0A 00 18 1B 14 80 10 51 0A 00 02 E2 80 80 03 43 E0 E0 80 80 C0 C0 E0 E0 00 00 78 78 00 00 30 30 00 00 00 00 00 00 00 00 00 00 00 00 0F 00 00 00 36 30 00 00 F8 F9 03 03 E0 E7 0D 01 80 9E 1E 00 00 58 38 01 03 D0 60 07 0C 80 80 1E 39 00 00 58 F2 00 03 D0 D0 00 0E 80 D4 00 3F 00 B8 00 C7 00 F6 00 9B 00 B7 00 6D 00 EE 00 3D 00 BE 00 B5 00 FD 00 99 00 F7 00 93 00 7F 00 8F 00 C6 00 7B 00 3A 00 BE 00 F0 01 FC 00 20 06 EB 00 01 19 F6 00 07 67 B0 01 07 B7 E0 06 43 5B 81 19 E0 EC 07 67 F0 F7 07 B7 C0 CE 43 5B 01 38 E0 EC 07 E0 F0 F7 1F 80 C0 CE 73 00 01 38 C3 08 07 E0 03 08 1C 80 23 28 71 01 83 88 C2 02 23 28 D9 19 83 88 C2 02 23 28 D9 19 83 88 C2 02 03 30 D8 18 0F C0 C0 03 3E 00 C0 0C F9 01 C3 10 E6 06 CF 00 98 1B FE 00 60 6C F9 01 80 B0 E6 06 00 C0 98 1B 00 00 60 6C 00 00 80 B0 00 00 00 C0 00 00 00 00 0F 00 00 00 36 30 00 00 F8 F9 03 03 E0 E7 0D 01 80 9E 1E 00 00 58 38 01 03 D0 60 07 0F 80 80 1E 38 00 00 58 F6 00 03 D0 AF 00 00 80 E7 00 17 00 22 00 49 00 D1 00 12 00 6B 00 48 00 25 00 01 00 6B 00 00 00 DD 00 01 00 CF 00 03 00 36 00 0E 00 DF 00 F4 00 FE 00 DA 00 E8 01 DB 00 60 06 ED 00 81 19 FE 00 07 67 B8 01 07 B7 E0 06 43 5B 81 19 E0 EC 07 67 F0 F7 07 B7 C0 CE 43 5B 01 38 E0 EC 07 E0 F0 F7 1F 80 C0 CE 73 00 01 38 C3 08 07 E0 03 08 1C 80 23 28 71 01 83 88 C2 02 23 28 D9 19 83 88 C2 02 23 28 D9 19 83 88 C2 02 03 30 D8 18 0F C0 C0 03 3E 00 C0 0C F9 01 C3 10 E6 06 CF 00 98 1B FE 00 60 6C F9 01 80 B0 E6 06 00 C0 98 1B 00 00 60 6C 00 00 80 B0 00 00 00 C0 00 00 00 00 0F 00 00 00 36 30 00 00 F8 F9 03 03 E0 E7 0D 01 80 9E 1E 00 00 58 38 01 03 D0 60 07 05 80 80 1E 02 00 00 58 00 00 02 D0 01 00 0F 80 06 00 36 00 DB 00 FD 00 BF 00 8F 00 F6 00 77 00 FD 00 FA 00 E0 00 FB 00 D8 00 67 00 D1 00 47 00 40 00 8D 00 E2 00 FF 00 FE 00 73 00 F8 01 ED 00 60 06 DE 00 81 19 D8 00 07 67 E0 01 07 B7 E0 06 43 5B 81 19 E0 EC 07 67 F0 F7 07 B7 C0 CE 43 5B 01 38 E0 EC 07 E0 F0 F7 1F 80 C0 CE 73 00 01 38 C3 08 07 E0 03 08 1C 80 23 28 71 01 83 88 C2 02 23 28 D9 19 83 88 C2 02 23 28 D9 19 83 88 C2 02 03 30 D8 18 0F C0 C0 03 3E 00 C0 0C F9 01 C3 10 E6 06 CF 00 98 1B FE 00 60 6C F9 01 80 B0 E6 06 00 C0 98 1B 00 00 60 6C 00 00 80 B0 00 00 00 C0 00 00 00 00 0F 00 00 00 36 30 00 00 F8 F9 03 03 E0 E7 0D 01 80 9E 1E 00 00 58 38 01 00 D0 60 07 08 80 80 1E 1C 00 00 58 0E 60 00 D1 06 B0 0E 80 06 D0 07 20 06 50 03 58 06 50 03 48 06 50 13 50 06 50 1B 58 06 50 1B 58 06 50 1B 58 06 50 1B 58 06 50 0B 68 06 50 03 70 06 50 03 58 06 50 03 48 02 50 13 50 06 40 1B 58 06 00 1A 58 16 10 1A 58 E6 E0 1A 58 16 10 0A E8 E6 E0 02 B0 16 10 42 58 E2 E0 E2 E8 0E 00 F2 F0 06 30 C2 C8 06 D0 03 38 06 50 03 E0 06 50 1B 80 06 50 73 00 06 50 C3 00 06 50 DB 18 06 50 C3 00 06 50 DB 18 06 50 C3 00 06 50 DB 18 06 50 C3 00 04 50 C3 08 01 51 C3 10 06 46 CB 00 18 1B F6 00 60 6C F1 01 80 B0 E6 06 00 C0 98 1B 00 00 60 6C 00 00 80 B0 00 00 00 C0 00 00 00 00 03 00 00 00 0C 00 00 00 38 01 00 00 E0 05 03 00 80 15 0E 00 00 59 38 01 00 DD 60 07 00 04 80 14 00 01 00 30 00 01 07 B0 00 01 0B A0 80 01 0C A0 40 01 1E 80 C0 01 1F 80 D0 00 27 00 98 01 08 88 48 41 31 81 18 01 3C 80 70 01 0F 80 C0 01 20 A0 00 01 19 99 A0 A0 1E 1E 08 01 2D 8D 94 81 50 00 0C 41 28 03 3C 81 74 00 78 01 7F 00 B8 81 5F 00 98 00 5E 00 70 05 4D 00 A0 85 0F 00 98 19 64 00 2C 2D 43 1B 0C 4D 06 B6 48 E9 06 96 00 40 07 07 B0 81 32 82 78 01 38 A0 D8 01 3E 80 3C 01 3F 90 7C 01 1F 80 BC 01 0F 84 B8 00 0F 00 D0 01 07 82 C0 01 07 80 D0 01 07 82 C0 01 07 80 D8 01 13 90 B8 01 2C A0 00 00 13 10 40 00 07 80 E0 00 01 80 E0 00 00 80 00 00 00 80 00 00 00 80 00 00 00 00 E3 E0 00 00 30 34 08 08 30 37 11 10 B0 37 37 30 C0 0B 33 30 C0 1D 35 34 C0 11 1D 1C 80 0C 02 00 00 33 00 3C 00 C7 00 B3 10 07 00 8C A0 07 00 B0 00 07 08 80 A0 03 05 80 50 04 08 00 A0 07 04 80 10 07 01 81 C0 C7 07 87 E0 E7 0F 8F F0 F3 37 B7 F8 F9 3B BB FC FC 3D 3D FE FE 3E BE F0 F1 3F BF 4E 4E 3F BF B0 B1 3C BC 40 4D 3B BB 00 32 24 A4 00 4C 10 13 00 33 00 8C 00 C3 00 B3 10 01 00 8C 68 61 01 B0 18 01 05 80 F8 01 1A 98 F0 00 06 00 08 09 3E 80 F0 F1 3C 80 08 01 02 82 F8 01 3C BC F8 01 02 80 F8 01 3E 80 F0 00 3E 00 08 09 3E 80 F0 F1 3C 80 08 01 02 82 F8 01 3C BC F0 05 02 80 00 03 3E 80 00 CC 3C 01 00 30 00 80 00 C0 00 B3 00 00 00 8C 00 00 00 B0 00 00 00 C0 00 00 00 00 00 10 01 00 80 18 01 00 80 38 01 00 80 1C 02 12 40 5C 07 17 C0 CE 07 37 A0 AE 0B 2B E0 E0 09 69 B2 B0 09 69 D2 D0 11 D1 CA C8 18 58 DA D8 9C 1C E8 E8 9E 1E D4 D4 AE 2E E4 E4 AF 2F C4 C4 A7 27 EC EC 23 23 F6 F6 A1 21 EA EA B1 31 F6 F6 7C 7C EA EA 7F 7F F6 F6 7F 7F EA EA 5F 5F F2 F2 47 47 E2 E2 43 43 F6 F6 40 40 EA EA 40 40 76 76 47 47 EA EA 5F 5F F6 F6 7F 7F E2 E2 7C 7C 72 72 50 50 EA EA 41 41 F6 F6 41 41 EA EA 47 47 F6 F6 47 47 EA EA 5F 5F F4 F4 5F 5F EC EC 7E 7E E4 E4 7C 7C E4 E4 B8 38 D8 D8 B1 31 EA E8 A1 21 DA D8 B3 33 EA E8 93 13 D2 D0 93 13 F2 F0 9B 1B D2 D0 AF 0F A4 A0 AF 0F E6 E0 A7 07 C8 C0 AA 02 40 40 54 01 00 80 D4 01 00 80 78 00 00 00 00 00 00 00 00 00 00 10 00 00 00 38 00 00 00 38 00 00 00 3C 00 10 00 5C 00 18 00 7E 00 38 00 BE 00 3C 00 78 00 5C 82 00 00 7E AA 00 00 BE AA 00 00 78 DA 00 82 00 AE 00 AA 00 78 00 AA 00 86 00 DA 00 FA 00 AE 00 AA 00 78 00 D6 00 86 00 56 00 FC 00 AA 00 AA 00 AA 00 AA 00 AA 00 B6 00 D6 00 AA 00 D4 00 AA 00 AA 00 56 00 AA 00 DA 00 EA 00 AA 00 5A 00 B4 00 AA 00 B6 00 AA 00 AA 00 AA 00 AA 00 DC 00 AA 00 AA 00 B4 00 AA 00 56 00 AE 00 6A 00 78 00 AA 00 86 00 AA 00 FA 00 AE 00 AA 00 78 00 AA 00 86 00 AA 00 FA 00 B4 00 AA 00 B6 00 AA 00 AA 00 AA 00 AA 00 B4 00 AA 00 B6 00 AA 00 AA 00 AA 00 AA 00 54 00 AA 00 D6 00 AA 00 78 00 AA 00 00 00 54 00 00 00 D6 00 00 00 78 00 00 00 00 00 00 00 00 00 00 10 00 00 00 18 00 00 00 38 00 00 00 3C 00 10 00 5C 00 18 00 7E 00 38 00 BE 00 3C 00 78 00 5C 82 00 00 7E AA 00 00 BE AA 00 00 78 DA 00 82 00 AE 00 AA 00 F8 00 AA 00 80 04 DA 00 00 7C AE 00 00 78 78 00 00 38 00 84 00 30 00 7C 00 10 00 78 00 00 00 38 00 00 00 30 00 00 00 10 00 00 00 00 00 00 00 00 00 00 00 00 00 00 00 00 00 00 00 00 00 10 00 00 00 18 00 00 00 38 00 00 00 3C 00 10 00 5C 00 18 00 7E 00 38 00 BE 00 3C 00 78 00 5C 86 00 00 7E FA 00 00 BE AA 00 00 78 AA 00 86 00 AA 00 FA 00 B4 00 AA 00 B6 00 AA 00 AA 00 AA 00 AA 00 B4 00 AA 00 B6 00 AA 00 AA 00 AA 00 AA 00 54 00 AA 00 D6 00 AA 00 78 00 AA 00 00 00 54 00 00 00 D6 00 00 00 78 00 00 00 00 00 00 00 01 01 83 83 01 01 0F 4F 00 03 3C BC 00 01 30 B3 02 02 40 4C 0F 0F 00 31 3C 3C 08 C1 F0 F3 10 01 C0 CC 28 81 00 31 10 81 08 C1 28 81 10 01 10 81 28 81 28 81 10 81 10 81 28 81 28 81 10 81 10 81 28 81 28 81 10 81 10 81 28 81 28 81 10 81 10 81 28 81 20 81 10 81 0C 81 28 81 3C 81 10 81 0E 80 20 81 33 B0 0C 81 0C 8C 34 81 33 83 3E 80 7D 01 3F 80 FD 01 3F 80 F1 01 3F 80 CD 01 7F 00 3D 01 EC 00 FD 01 F3 00 FD 01 4F 00 FD 01 3F 00 FD 01 7F 00 F3 03 7F 00 CC 0C 7F 00 33 30 3C 00 CF C0 73 03 3F 00 4D 0D 7F 00 31 31 7F 00 CD C1 6E 00 3D 01 79 01 FD 01 67 07 FD 01 10 10 FC 00 70 73 F9 01 00 09 E7 07 00 3A 90 10 00 90 70 73 00 A0 00 09 00 00 00 3A 00 00 00 90 00 00 00 A0 00 00 00 00 CC 00 03 F3 00 0C CD 00 3F 3D 00 4C DE 00 F3 D9 01 ED E6 0D DD 9C 3A BE 6F 4B 79 8E 31 66 B8 1C 18 E4 7F 7B 9E 3C 1E 3F 0E 39 73 03 63 7B 38 14 36 1E F3 8E 2E E7 DC 72 EC D8 2C ED B0 0A CE 60 62 D7 E0 78 DB C0 3E B3 C0 3F 2F 80 4F 1F 80 73 5F 80 2C 53 00 0B 6B 00 62 7B 00 79 7B 00 3E 7B 00 3F 6B 00 4F 53 00 73 5F 00 2C 5F 00 0B 67 00 62 5F 00 79 5F 00 3E 53 00 3F 6B 00 4F 7B 00 73 7B 00 2C 7B 00 0B 6B 00 62 53 00 79 5F 00 3E 5F 00 3F 67 00 4F 7B 00 63 7B 00 38 74 00 0E 70 00 03 40 00 00 00 00 FF FC C0 FF F3 F3 FF C0 C1 FF 80 01 FF 40 C0 FC F3 C1 F1 E1 E6 CD C1 9C B8 80 6F 48 01 8E B0 06 B8 9C 18 E4 7F 7B 9E BC 1E 3F CE 38 73 C3 60 7B B8 10 36 DE F3 8E 8E E7 DD 02 EC DB 00 ED B7 80 CE 6F 60 C7 EF 78 C3 DF BE 83 DF BF 0F BF 0F 1F BF 03 1F BF 00 13 7F 80 03 7F 60 03 7F 78 03 7F BE 03 7F BF 03 7F 0F 13 7F 03 1F 7F 00 1F 7F 80 07 7F 60 1F 7F 78 1F 7F BE 13 7F BF 03 7F 0F 03 7F 03 03 7F 00 03 7F 80 03 7F 60 13 7F 78 1F 7F BE 1F 7F BF 07 7F 0F 03 7F 03 03 7F 80 04 FF C0 03 FF F0 0F FF FC BF FF 00 00 00 00 03 C0 00 0C D0 00 3F 38 00 CC DC 03 F3 D8 0C CD E4 33 3D 98 7C DE 70 F3 59 BC CF 66 38 1F 9A E4 1E 63 9C 19 EE 7C 06 39 3C 1C 63 DC 7F 9D CC FE 7E F4 00 E6 10 00 DE EC 00 DD F4 00 61 B6 00 7D B6 00 1E 76 00 27 EE 00 09 E6 00 62 FA 00 78 FA 00 3E 6A 00 3F 66 00 4F 6E 00 73 66 00 2C 6A 00 0B 6C 00 62 7C 00 79 7A 00 3E 7C 00 3F 6C 00 4F 6A 00 73 66 00 2C 6E 00 0B 66 00 62 6A 00 79 7A 00 3E 7A 00 3F 66 00 4F 6E 00 63 6E 00 38 6C 00 0E 70 00 03 40 00 00 00 00 00 00 00 00 00 00 00 00 00 00 00 FF FC 3F FF F0 0F FF CC 17 FF 3F 3B FC 0C 1D F0 00 19 CC 0C 05 03 3C 1B 70 1E 71 F3 19 BD C1 06 39 01 1A E5 00 63 9D 01 EE 7D 06 38 3D 1C 60 1D 7F 9C 0D FE 7E 05 00 E6 01 FE DE E1 FE DD F1 FF 61 B0 FF 7D B0 FF 1E 70 FF 87 E0 FF 81 E0 FF 60 F8 FF 78 F8 FF BE 68 FF BF 60 FF 0F 60 FF 03 60 FF 80 68 FF 80 6C FF 60 7C FF 78 78 FF BE 7C FF BF 6C FF 0F 68 FF 03 60 FF 80 60 FF 80 60 FF 60 68 FF 78 78 FF BE 78 FF BF 60 FF 0F 60 FF 03 60 FF 80 61 FF C0 73 FF F0 4F FF FC BF FF FF FF FF FF FF FF FF FF FF FF FF 00 00 0E 00 00 38 00 00 E2 00 03 9B 00 0E 3B 00 39 BB 00 F3 BB 03 6B B8 0C 5B B3 11 5B 8C 27 5B 33 2F 58 CA 73 53 38 4C 4C D0 43 73 E0 44 CC C0 46 BF 00 4A 8F 00 4C B2 00 4E BC 00 52 8D 00 4C B0 C0 52 87 20 4C B8 E0 52 87 C0 5C BF 80 5E BF 00 5E BE 00 5E BC 00 5E B8 00 5E B3 00 5E A8 C0 5E 87 20 4E B8 E0 50 87 C0 5C BF 80 5E BF 00 5E BE 00 5E BC 00 5E B8 00 5E B3 00 5E A8 C0 5E 87 20 4E B8 E0 50 87 C0 5C BF 80 5E BF 00 5E BE 00 5E BC 00 5E B8 00 5E B4 00 4E A6 00 32 8C 00 0C B0 00 03 C0 00 00 00 00 FF FF CE FF FF 38 FF FC E0 FF F3 98 FF CE 38 FF 38 38 FC F0 38 F3 68 38 EC 58 33 D0 58 0C A0 58 30 A0 58 C0 70 53 01 4C 4C 07 53 70 0F 50 C0 1F 50 80 3F 40 80 7F 40 80 FF 40 80 FF 40 81 3F 40 80 DF 50 87 2F 4C B8 EF 52 87 DF 5C BF BF 5E BF 7F 5E BE FF 5E BD FF 5E B8 FF 5E B3 3F 5E A0 DF 5E 87 2F 4E B8 EF 50 87 DF 5C BF BF 5E BF 7F 5E BE FF 5E BD FF 5E B8 FF 5E B3 3F 5E A0 DF 5E 87 2F 4E B8 EF 50 87 DF 5C BF BF 5E BF 7F 5E BE FF 5E BD FF 5E BB FF 5E B5 FF 4E A6 FF B2 8D FF CC B3 FF F3 CF FF FC 3F FF 00 00 00 00 00 00 00 00 00 00 03 C0 00 0E 30 00 38 C8 00 E6 74 03 8F 3A 0E 67 92 38 F3 CE 66 79 32 1F 3C C2 0F 93 02 07 CC 62 13 33 72 18 C6 EA 67 2E DA FC 6D DA 00 5D B2 00 03 4A 00 28 32 00 5C CA 00 B3 3A 00 CC FA 00 33 FA 00 0F FA 00 03 FA 00 04 FA 00 08 32 00 14 8A 00 2D 32 00 5C CA 00 B3 3A 00 CC FA 00 33 FA 00 0F FA 00 03 FA 00 04 FA 00 08 32 00 14 8A 00 2D 32 00 5C CA 00 B3 3A 00 CC FA 00 33 FA 00 0F FA 00 03 FA 00 08 F2 00 18 0C 00 06 B0 00 01 C0 00 00 00 00 00 00 00 00 00 00 00 00 00 00 00 FF FF FF FF FF FF FF FC 3F FF F3 CF FF CE 37 FF 38 CB FC E0 75 F3 80 3A CE 60 12 38 F0 0E 60 78 32 00 3C CA 00 13 1A 00 0C 0A 10 30 02 18 C0 02 67 00 02 FC 00 02 00 00 02 FF 80 0A FF A8 32 FF 5C CA FE B3 3A FE CC FA FF 33 FA FF CF FA FF F3 FA FF F4 FA FF E8 32 FF D4 0A FF AC 32 FF 5C CA FE B3 3A FE CC FA FF 33 FA FF CF FA FF F3 FA FF F4 FA FF E8 32 FF D4 0A FF AC 32 FF 5C CA FE B3 3A FE CC FA FF 33 FA FF CF FA FF F3 FA FF E8 F2 FF D8 0D FF E6 B3 FF F9 CF FF FE 3F FF FF FF FF FF FF FF FF FF FF FF FF 00 00 FC 00 01 FA 00 0B F6 00 1B E3 00 2B EC 00 ED E8 03 96 E6 0E 7B 75 19 E5 B9 27 9E 1E 1E 79 E1 39 E7 1F 67 DE FE 1F BD C5 3C 3B BB 03 7B 7D 3E 7B 7D 6D 7B BE 56 BD DE 6F B6 2E 3C 1F F6 03 CF F2 3E E3 C0 6D 78 00 56 E5 00 6F 9A 00 3C 6D 00 03 D6 00 3E 80 00 6D 7A 00 56 FD 00 6F 7E 00 3C FF F8 03 7D F0 3E 9F F8 6D 63 E8 56 E5 F0 6F 9A B0 3C 6D 20 03 D6 00 3E EC 00 6D 7A 00 56 E5 00 6F 9A 00 38 6D 00 07 D6 00 3E EC 00 6D 7A 00 56 E5 00 6F 9A 00 38 6D 00 06 D6 00 3D 6C 00 0E F0 00 01 80 00 00 00 00 FF FE FC FF F1 F8 FF E3 F0 FF C3 E3 FF 03 E0 FC 01 E0 F0 10 E0 E0 78 70 C1 E0 38 87 80 1E DE 01 E0 B8 07 00 60 1E 00 80 3C 01 80 38 3B C0 78 7D 80 78 7D 01 78 3E 10 3C 1E 00 36 2E 80 1F F6 C0 0F F2 80 03 CD 01 00 3F 10 00 7F 00 02 7F 80 00 7F C0 10 FF 80 01 FF 01 78 FF 10 FC 7F 00 7E 07 80 FF FB C0 7D F7 80 1F FB 01 03 EB 10 01 F7 00 02 B7 80 00 2F C0 10 DF 80 01 FF 01 00 FF 10 00 7F 00 02 7F 80 00 7F C0 10 FF 80 01 FF 01 00 FF 10 00 7F 00 02 7F 80 00 7F C0 10 FF 81 01 FF C0 03 FF F0 0F FF FE 7F FF 00 00 00 00 01 CE 00 0F 3C 00 3C F0 00 CB CE 07 37 3C 1F D8 F8 7F ED E4 3C 35 86 00 DA 7A 00 AA FC 00 6D 1C 00 14 EE 00 35 F6 00 53 36 00 6E D6 00 9D EE 00 73 EC 00 ED F4 00 DE F0 00 3E 74 00 DF 32 00 CF 54 00 E3 4A 00 ED 2C 00 6C D0 00 AA EC 00 8D DA 00 DF 1E 00 70 DE 00 0F BE 00 7C 7E 00 D9 EC 00 A7 FC 00 D5 F8 00 73 FA 00 06 78 00 79 90 00 DA 64 00 AD 8A 00 DF 34 00 70 DA 00 0F AC 00 7D D8 00 DA F4 00 AD CA 00 DF 34 00 70 DA 00 0D AC 00 7A D8 00 1D E0 00 03 00 00 00 00 00 00 00 00 00 00 00 00 00 FF FE 31 FF F0 0E FF C0 3C FF 00 F1 F8 03 C0 E7 07 01 9F C0 03 7F E0 01 3C 30 00 00 18 78 00 08 FD 00 0C 1D 00 04 0E 00 04 06 00 00 06 00 00 C6 00 01 EE 00 03 ED 00 0D F5 00 1E F3 00 3E 71 00 DF 30 FE CF 14 FE E3 00 FE E1 21 FF 60 01 FE 22 0D FE 00 1A FE 00 1E FF 00 1E FF 80 3E FF 00 7E FE 01 ED FE 27 FC FE 05 F8 FF 03 F8 FF 86 79 FF 01 93 FE 02 61 FE 20 00 FE 00 04 FF 00 00 FF 80 21 FF 00 03 FE 02 01 FE 20 00 FE 00 04 FF 00 00 FF 80 21 FF 02 03 FF 80 07 FF E0 1F FF FC FF FF FF FF FF FF FF FF FF FF 00 00 00 00 18 00 01 E7 00 07 F9 C0 01 FE E0 1C 7F 70 3F 3F B0 3F 9F CC 5F CF 3E 4F EC FA 33 E3 E2 4D CF 86 72 3E 02 7C F8 06 5D C4 02 46 E8 06 76 C8 46 3D E0 EE 1E C8 FC 06 E1 70 09 E3 F4 06 FF 0C 0B 3C 38 0D C0 F0 2E F7 C4 47 7F 12 33 9C 4C 0C C1 30 03 18 C0 00 C3 00 00 3C 00 00 00 00 FF E7 FF FE 00 FF F8 00 3F F0 00 1F E0 00 0F C0 00 07 80 00 03 80 00 0D 40 00 3E 40 00 FA 30 03 E2 0C 0F 86 02 3E 02 00 F8 06 01 C0 02 00 E0 06 00 C0 46 81 E0 EE C0 C0 FD E0 E1 73 E1 E3 F1 F0 FF 01 E0 3C 03 C0 00 03 A0 00 05 40 00 02 B0 00 0D CC 00 33 F3 00 CF FC C3 3F FF 3C FF FF C3 FF 00 00 00 00 1C 00 00 E3 80 03 FC E0 04 7F 70 0F 1F B8 0F CF DC 1F E7 EC 5F F3 EA 6F FB F2 57 F9 E4 69 FD 9A 56 38 66 59 C3 9E 5E 3C 7E 5B C3 E6 58 FF DE 2E FF FC 07 FF F8 29 FF E4 30 3F 18 3F C0 F0 0F 1F E0 00 7F 90 27 F8 74 47 FB E2 33 FF CC 0C FF 30 03 18 C0 00 C3 00 00 3C 00 00 00 00 FF E3 FF FF 00 7F FC 00 1F F8 00 0F F0 00 07 E0 00 03 C0 00 01 80 00 01 40 00 02 60 00 02 50 00 04 68 00 18 46 00 60 41 C3 80 40 3C 00 40 00 00 40 00 00 A0 00 01 C0 00 03 80 00 01 80 00 03 80 00 07 C0 00 0F C0 00 03 A0 00 05 40 00 02 B0 00 0D CC 00 33 F3 00 CF FC C3 3F FF 3C FF FF C3 FF 00 00 00 00 3E 00 01 F9 C0 07 C6 F0 0F BE F8 0F C1 8C 1F FD AC 1B CF 76 07 97 46 3F BA 0A 3F A1 BC 7F 83 DC 77 9B D4 0F 7A BC 09 FC 68 02 EF 70 0F FB 0E 1F 6E FA 1F B9 6C 07 C7 B0 01 FD D0 00 76 C0 00 18 00 00 00 00 FF C1 FF FE 3E 3F F9 F9 CF F7 C0 F7 EF 80 FB EF C1 8D DF FD 8D DB CF 36 C7 87 06 BF 9A 0A BF 80 3D 7F 80 1D 77 98 15 8F 78 3D E9 FC 6B F2 EF 71 EF FB 0E DF 6E FA DF B9 6D E7 C7 B3 F9 FD D7 FE 76 CF FF 99 3F FF E7 FF 00 00 00 00 3E 00 01 F9 C0 07 C6 F0 0F BE F8 0F C1 8C 1F FD AC 0B CF 76 37 97 46 7F BA 0A 7F A1 BC 37 83 DC 0F 9B D4 0F 7A BC 09 FC 68 02 EF 74 07 FB 08 0F 6E 60 0F B9 80 03 C7 C0 00 FE E0 00 3B 60 00 0C 00 00 00 00 FF C1 FF FE 3E 3F F9 F9 CF F7 C0 F7 EF 80 FB EF C1 8D DF FD 8D CB CF 36 B7 87 06 7F 9A 0A 7F 80 3D B7 80 1D CF 98 15 EF 78 3D E9 FC 6B F2 EF 75 F7 FB 0B EF 6E 67 EF B9 9F F3 C7 DF FC FE EF FF 3B 6F FF CC 9F FF F3 FF 00 00 00 00 3E 00 01 F9 C0 07 C6 F0 0F BE F8 0F C1 8C 1F FD AC 1B CF 76 67 97 46 7F BA 0A 7F A1 BC 2F 83 DC 07 9B D4 0F 7A BC 09 FC 68 16 EF 70 3F FB 0E 1F 6E FA 0F B8 EC 03 C7 70 00 DB 30 00 60 00 00 00 00 00 00 00 FF C1 FF FE 3E 3F F9 F9 CF F7 C0 F7 EF 80 FB EF C1 8D DF FD 8D 9B CF 36 67 87 06 7F 9A 0A 7F 80 3D AF 80 1D D7 98 15 EF 78 3D E9 FC 6B D6 EF 71 BF FB 0E DF 6E FA EF B8 ED F3 C7 73 FC DB 37 FF 64 CF FF 9F FF FF FF FF 00 00 00 00 34 00 01 E7 00 06 1F C0 0F FB E8 0F FF F4 1F FE F4 1F FD 38 3F FC D8 2E FE E8 1F 1E E8 3F EF 60 2F 77 60 3F B7 B0 16 4F C0 0F BF 20 17 F0 F0 39 F7 70 1E 7B F8 07 BD F8 03 FC 70 00 FC 00 00 38 00 00 00 00 FF CB FF FE 04 FF F8 07 3F F6 1F D7 EF FB EB EF FF F5 DF FE F5 DF FC 3B BF FC 1B AE FE 0B DF 1E 0B BF EF 07 AF 77 07 BF B7 87 D6 4F CF EF BF 2F D7 F0 F7 B9 F7 77 DE 7B FB E7 BD FB FB FC 77 FC FD 8F FF 3B FF FF C7 FF 00 00 00 00 34 00 01 E7 00 06 1F CC 0F FB EC 0F FF F0 1F FE F0 1F FD 38 3F FC D8 2E CE E8 1F 36 E8 3F F7 70 2F 6F 98 3F 9F E0 16 5F C0 2F BF 20 57 E0 E0 79 F6 F0 3E 7B 70 0F FB F8 03 F8 F8 00 70 30 00 00 00 00 00 00 FF CB FF FE 04 FF F8 07 33 F6 1F CD EF FB ED EF FF F3 DF FE F7 DF FC 3B BF FC 1B AE CE 0B DF 36 0B BF F7 07 AF 6F 83 BF 9F E7 D6 5F DF AF BF 2F 57 E0 EF 79 F6 F7 BE 7B 77 CF FB FB F3 F8 FB FC 77 37 FF 8F CF FF FF FF 00 00 00 00 34 00 01 E7 00 06 1F D0 0F FB E0 0F FF F0 1F FE F0 1F FD 38 3F FC D8 2E 7D D8 1F BD D8 3F DD D0 2E 5D B0 3F BB 60 16 BA C0 0F 7D 00 03 F0 C0 04 FB C0 0B 3D 80 0F EE 00 03 FF 00 00 7F 00 00 0E 00 00 00 00 FF CB FF FE 04 FF F8 07 2F F6 1F D7 EF FB EF EF FF F7 DF FE F7 DF FC 3B BF FC 1B AE 7C 1B DF BC 1B BF DC 17 AE 5C 37 BF B8 6F D6 B8 DF EF 7D 3F F3 F0 DF F4 FB DF EB 3D BF EF EE 7F F3 FF 7F FC 7F 7F FF 8E FF FF F1 FF 00 00 00 00 7C 00 01 FF 00 03 FF 80 07 FE 40 07 F3 C0 0F EF E0 0F FF 78 0F FB 44 0F FB 82 17 FF 82 1B FF 02 37 FE 82 77 7E 04 2F 76 04 2E E7 1C 2F 38 FC 77 CF 98 1B B6 00 0C F8 00 08 58 00 00 30 00 00 00 00 00 00 00 FF 83 FF FE 7C FF FD FF 7F FB FF BF F7 FE 5F F7 F3 DF EF EF EF EF FF 7F EF FB 47 EF FB 83 C7 FF 83 C3 FF 03 87 FE 83 07 7E 07 8F 76 07 8E E7 19 8F 38 E1 07 CF 83 83 86 67 E0 81 FF E3 03 FF F7 87 FF FF CF FF FF FF FF 00 00 00 00 7C 00 01 FF 00 03 FF 80 07 FC 80 07 E7 C0 0F DF C0 0F FE F0 0F F6 88 0F F7 04 17 FF 04 77 FE 04 2F FD 04 2E FC 08 2E EC 0C 5D CF 3E 1E F0 DE 0F 3F 8C 16 DE 00 1B E0 00 05 60 00 00 C0 00 00 00 00 00 00 00 FF 83 FF FE 7C FF FD FF 7F FB FF BF F7 FC BF F7 E7 DF EF DF DF EF FE FF EF F6 8F EF F7 07 87 FF 07 07 FE 07 8F FD 07 8E FC 0B 8E EC 09 1D CF 30 9E F0 C0 EF 3F A1 C6 1E 73 C2 01 FF E0 0F FF FA 1F FF FF 3F FF FF FF FF 00 00 00 00 7C 00 01 FF 00 03 FF 80 07 FF 40 07 F9 C0 0F F7 E0 0F FF BC 0F FD A2 0F FD C1 07 FF C1 09 FF 81 0B FF 41 1B BF 02 0B BB 02 0B B3 8C 0B BC 78 1B DF 80 05 E6 00 06 D8 00 07 7C 00 00 2C 00 00 18 00 00 00 00 FF 83 FF FE 7C FF FD FF 7F FB FF BF F7 FF 5F F7 F9 DF EF F7 EF EF FF BF EF FD A3 EF FD C1 F7 FF C1 E1 FF 81 E3 FF 41 C3 BF 03 E3 BB 03 E3 B3 8F E3 BC 73 C3 DF 87 E1 E6 7F F0 C1 FF F0 41 FF F8 81 FF FF C3 FF FF E7 FF 00 00 00 00 00 00 0F 3E 00 10 FF 80 21 FF C0 23 FF E0 23 FF E0 27 FE F0 17 BF F0 17 5F F0 0C DF F4 03 6F F0 07 77 F0 07 6F F0 0B 6F F4 3F 6F E8 7E F7 E0 69 CF C0 37 BF 80 01 3E 00 00 00 00 00 00 00 00 00 00 00 00 00 FF FF FF FF C1 FF FF 3E 7F F0 FF BF E1 FF DF E3 FF EF E3 FF EF E7 FE F7 F7 BF F7 F7 1F F3 FC 1F F1 FB 0F F3 F7 07 F7 F7 0F F3 CB 0F F1 8F 0F E3 06 07 E7 00 0F DF 80 3F BF C8 3E 7F FE C1 FF FF FF FF FF FF FF FF FF FF 00 00 00 00 00 00 1E 3E 00 21 FF 80 41 FF C0 43 FF E0 43 FF E0 47 7F 70 26 BF F0 25 CF F0 14 77 F0 0B B7 F0 03 D7 F0 03 D7 F0 01 DB F0 07 B7 E0 0F 6F E0 1E EF C0 1A 2F 80 0C 1E 00 00 00 00 00 00 00 00 00 00 00 00 00 FF FF FF FF C1 FF FE 3E 7F E1 FF BF C1 FF DF C3 FF EF C3 FF EF C7 7F 77 E6 3F F7 E4 0F F7 F4 07 F7 FB 87 F7 FB C7 F7 FB C7 F7 F9 C3 F7 F7 87 EF E3 0F EF C0 0F DF C0 0F BF E1 DE 7F F3 E1 FF FF FF FF FF FF FF FF FF FF 00 00 00 00 00 00 07 3E 00 08 FF 80 11 FF C0 13 FF E0 13 FF E8 17 FD F0 0F 7F F0 0E BF F6 01 BF F4 06 DF F0 0E EF F4 0E DF F6 2E DF F4 7E DF E8 6D EF E0 33 1F C0 02 FF 80 00 3E 00 00 00 00 00 00 00 00 00 00 00 00 00 FF FF FF FF C1 FF FF 3E 7F F8 FF BF F1 FF DF F3 FF E7 F3 FF E3 F7 FD F7 FF 7F F1 FE 3F F0 F8 3F F1 F6 1F F3 EE 0F F1 CE 1F F0 8E 1F F1 0E 1F E3 0C 0F E7 80 1F DF C8 FF BF FD 3E 7F FF C1 FF FF FF FF FF FF FF FF FF FF 00 00 00 00 00 00 00 1D 80 07 BE 80 0F DE 78 0F C0 FC 0F 9C 7C 0F 7B BC 06 F7 DC 18 F7 D8 3D FB A4 3D 9C 6E 38 6F EE 17 AF 0E 0F DE F4 0F DD F8 2F DD F8 2F D1 F8 07 AD F8 30 5E F0 36 DF 00 03 0E 00 00 00 00 00 00 00 FF FF FF FF E2 7F F8 5C 3F F7 BE 07 EF DE 7B EF C0 FD EF 94 7D EF 2B BD E6 57 DD C0 A7 DB 81 53 81 80 88 20 80 65 40 C7 AA 00 EF D4 F1 CF C9 FB AF D5 FB AF C1 FB C7 A1 FB B0 40 F7 B0 C0 0F C8 20 FF FC F1 FF FF FF FF 00 00 00 00 00 00 00 00 00 00 1C 80 03 BE 00 07 DE 70 07 C0 F8 07 BB 78 03 77 B8 00 F7 B0 18 FB 08 3C 50 3C 3C 2F BC 1B 9F D8 07 DF 00 07 DE E0 27 CD F0 03 81 F0 00 0C E0 13 5E 00 03 0C 00 00 00 00 00 00 00 00 00 00 FF FF FF FF FF FF FF E3 7F FC 5C 3F FB BE 0F F7 DE 77 F7 C0 FB F7 AB 7B FB 57 BB E4 A7 B7 C2 53 43 81 00 01 80 25 01 C3 8A 83 E7 D5 07 D7 CA EF A7 C5 F7 DB B1 F7 EC 20 EF D0 40 1F E8 21 FF FC F3 FF FF FF FF FF FF FF 00 00 00 00 00 00 00 00 00 00 08 00 00 1C 00 01 08 00 03 80 20 01 00 70 00 33 20 00 7B 00 00 78 00 18 30 18 18 03 18 00 07 80 01 07 80 03 83 00 01 00 C0 00 00 C0 00 0C 00 01 0C 00 00 00 00 00 00 00 00 00 00 00 00 00 FF FF FF FF FF FF FF F7 FF FF EB FF FE DD FF FD 6B DF FB B7 AF FD 4C 77 FE A3 2F FF 53 5F E7 28 E7 C3 94 C3 C3 C9 43 E6 F2 A7 FD 75 3F FB BA 3F FD 7C DF FE F2 DF FE E1 3F FC 61 FF FE F3 FF FF FF FF FF FF FF FF FF FF 00 00 00 00 00 00 00 13 00 00 38 E0 00 3B F0 01 D7 10 07 3C E0 0C F3 F0 0B CF F4 0B BE 74 0B 7D B6 2B 3D AE 2B 5E 6E 6F 67 9D 6B 38 71 66 BF C2 80 DF 0E 88 5C 3C 7E 20 F8 3F A3 E0 3F DF 80 1F BC 00 07 40 00 00 00 00 FF FF FF FF EC FF FF D3 1F FF B8 EF FE 3B F7 F9 D7 17 F7 3C 0F EC F0 03 EB C0 01 EB 80 01 CB 01 80 8B 01 80 8B 00 00 0F 00 00 0B 00 00 06 00 00 00 00 00 00 00 01 00 00 03 80 00 07 80 00 1F C0 00 7F E0 03 FF F8 BF FF 00 00 00 03 C0 00 07 F0 00 16 78 00 20 B8 00 20 3C 00 10 DD 00 2D 99 80 20 E7 00 11 30 80 2C CF 00 21 1E F8 11 DD 8C 11 DF 3E 0F EA 5E 01 F6 DA 01 FA 3E 01 FB 76 01 FD 8C 00 FE F8 01 3C 00 00 C3 00 00 3C 00 00 00 00 FC 3F FF FB CF FF F7 F7 FF F6 7B FF E0 BB FF E0 3C FF F0 1C 7F EC 18 3F E0 00 7F F1 00 BF EC CF 07 E0 1E FB F0 1D 8D F0 1F 3E FE 0A 1E FC 06 1A FC 02 3E FC 03 76 FC 01 8D FE 00 FB FD 00 07 FE C3 7F FF 3C FF FF C3 FF 00 00 00 00 00 00 00 00 00 00 00 00 00 03 80 01 E6 60 03 B0 30 01 2F 30 1E DD 80 3A 19 78 31 EE EC 2E 30 CC 59 AF 7A 72 DD A6 38 D9 9C 4E DE 72 73 89 CE 1C E7 38 07 3C E0 01 C3 80 00 7E 00 00 18 00 00 00 00 00 00 00 FF FF FF FF FF FF FF FF FF FF FC 7F FE 18 1F FD E0 0F FB B0 87 E1 2F 07 DE DD 87 BA 19 7B B1 EE ED A0 30 CD 00 2F 78 02 1D A0 80 19 81 00 1E 00 00 08 00 80 00 01 E0 00 07 F8 00 1F FE 00 7F FF 81 FF FF E7 FF FF FF FF 00 00 00 00 3C 00 00 F8 00 01 F0 F0 01 CF 38 03 BF D8 02 3F 00 01 F8 FE 07 F7 FC 0F EF F0 1B FF C8 19 78 38 17 3D F0 21 FF 7C 28 FE 76 31 9F 0E 5B DF BE 6B BB BC 30 71 9C 00 0F 80 00 77 00 00 7E 00 00 38 00 00 00 00 FF C3 FF FF 3D FF FE FB 0F FD F0 F7 FD CF 3B FB BF DB FA 3F 01 F9 F8 FE F7 F7 FD EF EF F3 DB FF CB D9 78 3B D7 3D F3 A1 FF 7D A0 FE 76 B1 9F 0E 5B DF BE 6B BB BD B4 71 9D CF 8F A3 FF 77 7F FF 7E FF FF B9 FF FF C7 FF 00 00 00 00 3C 00 01 FF 80 07 FF E0 0F FF F0 1F FF F8 0F FF F0 17 FF E8 09 FF 90 06 3C 68 19 C3 8C 30 3C 6C 30 40 1C 19 CE 38 0E 01 E4 13 CF 06 30 78 66 30 00 0C 18 00 38 0E 01 E4 03 CF 0C 00 78 00 00 00 00 00 00 00 FF C3 FF FE 3C 7F F9 DB 9F F6 A5 6F ED 5A B7 DA A5 5B ED 5A B7 C6 A5 63 E1 DB 87 E0 3C 0B D8 00 0D B6 00 6D B6 41 9D D9 CE 3B EE 31 E5 D3 CF 16 B4 78 66 B7 87 8D D9 FE 3B EE 31 E5 F3 CF 0D FC 78 F3 FF 87 FF FF FF FF 00 00 00 00 00 00 00 00 00 00 3C 00 01 FF 80 07 FF E0 0F FF F0 1F FF F8 0F FF F0 17 FF E8 09 FF 90 16 3C 6C 31 C3 8C 32 3C 1C 18 00 38 0E 01 E2 33 CF 06 30 78 0C 18 00 38 0E 01 E4 03 CF 0C 00 78 00 00 00 00 00 00 00 FF FF FF FF FF FF FF C3 FF FE 3C 7F F9 DB 9F F6 A5 6F ED 5A B7 DA A5 5B ED 5A B7 C6 A5 63 E1 DB 83 D0 3C 0D B0 00 0D B2 00 5D D9 C2 39 CE 31 E2 B3 CF 16 B4 78 CD D9 86 3B EE 31 E5 F3 CF 0D FC 78 F3 FF 87 FF FF FF FF 00 00 00 00 38 6C 00 F8 96 00 DD 8C 71 6D 80 19 AD A0 6D 03 58 34 F8 D8 7B E0 64 77 DF 2E 77 FF B6 2F 18 B0 2E 36 B6 36 2F 98 36 3E 3E 3B 29 BA 31 B3 30 20 DC 64 21 67 CC 07 98 B8 03 67 00 00 E0 00 00 60 00 00 00 00 FF C7 93 FF 03 61 FE 02 84 8E 01 A1 74 01 93 98 01 A7 0C 03 5B 84 F8 DB 03 E0 65 07 DF 2E 07 FF B6 8F 18 B1 8E 36 B6 86 2F 99 86 3E 3E 83 29 BA 85 B3 31 8E DC 65 88 67 CD D0 18 BB F8 07 47 FC 08 FF FF 0F FF FF 9F FF 00 00 00 00 38 68 00 F8 94 18 DD 9C 31 6D 88 19 AD A0 2D 03 58 34 F8 D8 3B E0 64 37 DF 2E 17 FF B6 2F 18 B0 2E 36 B6 36 2F 98 36 3E 3E 3B 29 BA 21 B3 30 18 DC 64 03 67 D8 03 18 B0 02 E7 00 01 C0 00 00 80 00 00 00 00 FF C7 97 FF 03 63 E6 02 81 DA 01 89 B4 01 83 D8 01 A7 8C 03 5B 84 F8 DB 83 E0 65 87 DF 2E C7 FF B6 8F 18 B1 8E 36 B6 86 2F 99 86 3E 3E 83 29 BA 85 B3 31 C0 DC 65 E0 67 DB F8 18 B7 F8 07 4F FC 18 FF FE 3F FF FF 7F FF 00 00 00 02 70 00 05 FC 00 07 FE 00 09 BE 10 3E 7E 7C 63 BD C6 40 5A 02 47 66 E2 4F 99 F2 6F AD F6 2F BD F4 2F AD F4 2F DB F4 4F DB F2 77 DB EE 73 DB CE 6C 99 36 2F 5A F4 0F 66 F0 03 7E C0 00 7E 00 00 3C 00 00 00 00 FD 8F FF F8 03 FF F0 01 FF F0 00 EF C8 00 93 BE 00 7D 63 81 C6 58 42 1A 51 66 8A 44 18 22 61 0C 86 A4 1C 25 A1 0C 85 A4 4A 25 01 08 82 30 4A 06 30 08 06 24 08 36 87 0A 71 C7 26 73 F3 3E 0F FC 3E 3F FF 9D FF FF C3 FF 00 00 00 07 00 00 0B 80 00 0F 80 00 07 3E 00 00 DF 80 06 EF E0 0F 70 F0 1F 00 F8 1F FF F8 2F FF F4 2F FF F4 13 FF C8 4C 7E 32 73 81 CE 7C 7E 3E 7F 00 FE 7F C3 FE 3F E7 FC 0F E7 F0 03 E7 C0 00 E7 00 00 24 00 00 00 00 F8 FF FF F7 7F FF EB BF FF EF 81 FF F7 00 7F F8 C0 1F F0 E0 0F E0 70 07 C0 00 03 C0 00 03 A0 00 05 A0 00 05 90 00 09 0C 00 30 03 81 C0 00 7E 00 00 00 00 00 00 00 80 00 01 C0 00 03 F0 00 0F FC 00 3F FF 00 FF FF C3 FF 00 00 00 00 00 20 00 00 F0 00 03 C8 00 0F 38 00 3C C8 00 F3 28 03 CC 28 0F 34 28 14 C4 28 1B 14 28 1A 14 28 1A 14 28 1A 14 C8 1A 15 30 1A 14 C0 1A 37 00 1A CC 00 1A 30 00 1A C0 00 0B 00 00 00 00 00 00 00 00 00 00 00 FF FF DF FF FF 0F FF FC 07 FF F0 03 FF C0 03 FF 00 03 FC 00 23 F0 00 A3 E0 01 A3 C0 01 A3 D0 11 A3 C8 D1 A3 D0 D1 23 C8 D0 C3 D0 D1 07 C8 D0 0F D0 30 3F C8 C0 FF D0 03 FF C8 0F FF E0 3F FF F0 FF FF FF FF FF FF FF FF 00 00 00 01 20 00 07 C8 00 0C 72 00 13 9C 00 17 E3 E0 2F EF FC 6F DF F8 5F BF C4 47 7C 2E 3B 02 36 3F 75 96 7E F5 14 7E F4 10 7E FA 24 1D 7D 9C 65 80 78 79 9F F4 7E 47 CC 6A F0 38 3C 7C 00 00 6A 00 00 3C 00 00 00 00 FE DF FF F9 07 FF F7 C1 FF EC 70 FF D0 1C 1F D0 00 03 A0 00 01 60 00 01 40 00 05 40 00 0E 80 00 06 80 71 86 00 F1 05 00 F0 01 00 F8 01 80 7C 01 60 00 03 78 00 05 7E 40 0D 6A F0 3B BD 7D C7 C3 6A FF FF BD FF FF C3 FF 00 00 00 01 20 00 07 C8 00 0C 72 00 13 9C 00 17 E3 E0 2F EF FC 6F DF F8 5F BF C4 47 7C 2E 3B 02 36 3F 75 96 7E F5 14 7E F4 10 7E FA 24 0D 7D 9C 71 80 7A 3D 9F F6 3E 67 CA 35 78 1C 1E FC 00 00 D4 00 00 78 00 00 00 00 FE DF FF F9 07 FF F7 C1 FF EC 70 FF D0 1C 1F D0 00 03 A0 00 01 60 00 01 40 00 05 40 00 0E 80 00 06 80 71 86 00 F1 05 00 F0 01 00 F8 01 80 7C 01 70 00 02 BC 00 06 BE 60 0A B5 78 1D DE FD E3 E0 D5 FF FF 7B FF FF 87 FF 00 00 00 00 00 00 00 3E 00 00 07 80 07 79 A0 1C FE D0 3B FE D8 37 FF 68 4F FF 6C 6F FF B4 2F FF B6 43 FF B6 2F E3 B4 1F DF 34 3D FF B2 3D FF B4 31 BF B2 0D BF 4E 1C 81 3E 0E 7E 1C 00 F4 00 00 FC 00 00 78 00 00 00 00 FF FF FF FF C1 FF FF BE 7F F8 07 9F E0 01 8F C0 00 C7 80 00 C3 80 00 63 40 00 61 60 00 31 A0 00 30 00 00 30 80 00 31 C0 00 31 80 00 30 80 00 31 80 00 32 CC 00 4E DC 00 3E EE 7E DD F0 F5 E3 FE FD FF FF 7B FF FF 87 FF 00 00 00 00 00 00 00 3E 00 00 07 80 07 79 A0 1C FE D0 3B FE D8 37 FF 68 4F FF 6C 6F FF B4 2F FF B6 43 FF B6 2F E3 B4 1F DF 34 3D FF B2 3D FF B4 0D BF B2 31 BF 4C 3C 81 3C 1C 3E 78 00 7A 00 00 7E 00 00 3C 00 00 00 00 FF FF FF FF C1 FF FF BE 7F F8 07 9F E0 01 8F C0 00 C7 80 00 C3 80 00 63 40 00 61 60 00 31 A0 00 30 00 00 30 80 00 31 C0 00 31 80 00 30 80 00 31 C0 00 32 B0 00 4D BC 00 3D DD 3E 7B E3 7A 87 FF 7E FF FF BD FF FF C3 FF 00 00 00 00 3C 00 01 E7 00 03 F9 C0 06 7E E0 05 BF 50 35 B9 A8 76 74 98 7B F9 D8 24 FF E8 5E 1F F0 5E C0 08 5E FF F8 5C 7F B4 5B 1F 8A 2F CE 7A 4F 01 F6 73 6F 90 34 F7 60 03 76 E0 03 71 C0 01 B7 00 00 4C 00 00 00 00 FF C3 FF FE 00 FF FC 00 3F F8 00 1F F0 00 0F C1 80 07 B1 80 23 70 04 03 78 00 03 A4 00 03 1E 00 07 1E C0 0B 1E FF FB 1C 7F B1 1B 1F 88 8F CE 78 4F 01 F0 73 0F 90 B4 07 6F CB 06 EF FB 01 DF FD 87 3F FE 4C FF FF B3 FF 00 00 00 00 3C 00 00 C7 80 03 F9 C0 05 FE E0 09 9F 60 1F 6F 60 0F 6F 60 07 9F DC 01 FE 3E 06 39 DE 0D 83 EC 0B CB E2 0B C9 CE 03 CA 2E 2F AB EE 2F AB EC 37 6B E2 38 E9 DE 1B EA 2C 01 EB E0 00 75 C0 00 00 00 00 00 00 FF C3 FF FF 00 7F FC 00 3F F8 00 1F F4 00 0F E0 00 0F C0 60 0F E0 60 03 F0 00 1D F8 00 3E F6 01 DE ED 83 ED EB C3 E0 EB C1 C0 D3 C0 00 8F A0 00 8F A0 01 87 60 02 80 E0 1E C3 E2 2D E5 E3 E3 FE 71 DF FF 8A 3F FF FF FF 00 00 00 00 00 00 00 00 00 00 0C 00 00 0E 00 00 0C 00 38 08 00 6E 00 00 3F DB FC 00 00 76 0D 91 9C 10 32 00 20 54 04 46 74 62 4D 28 B2 49 18 92 46 3C 62 20 24 04 38 C3 1C 0F 3C F0 03 FF C0 00 E7 00 00 3C 00 00 00 00 FF FF FF FF FF FF FF F1 FF FF EC FF FF EE FF C3 ED FF B8 EB FF 6E 00 03 BF C3 FD C0 00 76 E0 10 1D C0 30 03 80 50 01 06 70 60 0D 20 B0 09 00 90 06 00 60 80 00 01 80 00 01 C0 00 03 F0 00 0F FC 00 3F FF 00 FF FF C3 FF 00 00 00 00 00 00 00 00 00 00 00 00 1C 01 C0 17 03 40 0F 87 80 00 E6 00 00 18 00 02 26 00 0C E3 C0 13 C0 F8 25 A4 6C 47 24 3A 40 18 82 49 18 92 46 3C 62 20 24 04 38 C3 1C 0F 3C F0 03 FF C0 00 E7 00 00 3C 00 00 00 00 FF FF FF FF FF FF FF FF FF E3 FE 3F DC FD DF D7 7B 5F EF 97 BF F0 E6 7F FC 00 7F F0 26 3F E0 E3 C7 C3 C0 FB 85 80 6D 07 00 38 00 00 80 09 00 90 06 00 60 80 00 01 80 00 01 C0 00 03 F0 00 0F FC 00 3F FF 00 FF FF C3 FF 00 00 00 00 7E 00 01 E7 80 03 99 C0 07 C3 E0 07 FF E0 07 FF E0 0B FF D0 0D FF 90 0C 3C 50 0C C0 D0 12 CC A8 13 4D 28 39 33 1C 2E 30 74 5B C3 DA 66 FF 66 79 BD 9E 3E 66 7C 0F 99 F0 03 E7 C0 00 FF 00 00 3C 00 00 00 00 FF 81 FF FE 00 7F FC 00 3F F8 18 1F F0 00 0F F0 00 0F F0 00 0F E8 00 17 EC 00 17 EC 00 57 EC C0 D7 C2 CC A3 C3 4D 23 81 33 01 80 30 01 40 00 02 60 00 06 78 00 1E BE 00 7D CF 81 F3 F3 E7 CF FC FF 3F FF 3C FF FF C3 FF 00 00 00 00 1E 60 00 E1 F0 03 07 F8 04 1F E4 08 7F 94 11 FE 54 22 F8 EA 23 22 AA 43 D7 6A 41 D5 1A 41 D3 64 54 E8 9E 48 EF 7E 48 74 FE 48 3B C2 24 37 92 26 37 4E 11 B6 3C 0C 36 F0 03 37 C0 00 D7 00 00 2C 00 00 00 00 FF FF 9F FF E0 6F FF 01 F7 FC 07 FB F8 1F E5 F0 7F 85 E1 FE 05 C2 F8 42 C3 20 A2 83 C2 42 81 C5 02 81 C2 05 80 E0 1E 80 E0 7E 80 70 FE 80 3B C2 C0 37 82 C0 37 0E E0 36 3D F0 36 F3 FC 37 CF FF 17 3F FF EC FF FF F3 FF 00 00 00 00 07 00 00 3F C0 01 FE 30 07 F1 C0 1F 8E 10 1E 70 08 21 80 04 3A 00 04 3A 00 02 74 00 02 74 00 02 68 00 02 42 00 02 42 00 02 46 00 02 5C 00 04 50 00 24 10 03 C8 0C 01 30 03 00 C0 00 E7 00 00 18 00 00 00 00 FF F8 FF FF C7 3F FE 3F CF F9 FE 37 E7 F1 CF DF 8E 0F DE 70 07 A1 80 03 BA 00 03 BA 00 01 74 00 01 74 00 01 68 00 01 40 00 01 40 00 01 40 00 01 40 00 03 40 00 03 80 00 07 F0 00 0F FC 00 3F FF 00 FF FF E7 FF FF FF FF 00 00 00 00 3C 00 01 C3 80 06 3C 60 0D C3 B0 1A 24 58 0C 5A 30 16 24 68 09 C3 90 06 3C 60 09 C3 90 14 3C 28 19 00 98 36 24 6C 23 C3 C4 6B 66 D6 36 24 6C 5E A5 7A 27 66 E4 19 E7 98 06 24 60 01 DB 80 00 3C 00 00 00 00 FF C3 FF FE 3C 7F F9 C3 9F F6 00 6F EC 00 37 D8 00 1B EC 18 37 C6 00 63 E1 C3 87 F0 3C 0F E8 00 17 C4 00 23 C1 00 83 80 24 01 80 00 01 08 00 10 80 00 01 40 81 02 A0 00 05 D8 00 1B E6 00 67 F9 DB 9F FE 3C 7F FF C3 FF 00 3C 00 00 C3 00 01 00 00 02 00 C0 02 03 20 04 1C A0 04 33 00 04 49 E0 18 77 80 14 34 A0 0E 02 F0 04 0F E0 02 0F 90 02 00 70 01 07 E0 0B 03 D0 1A 00 18 0C 00 30 16 00 68 09 C3 90 06 3C 60 01 C3 80 00 3C 00 00 00 00 FF C3 FF FF 00 FF FE 00 3F FC 00 DF FC 03 2F F8 1C 2F F8 33 1F E0 41 EF C0 77 8F C4 34 AF EE 02 F7 F4 0F EF F8 0F 97 FC 00 77 F0 07 EF E8 03 D7 D8 00 1B EC 00 37 C6 00 63 E1 C3 87 F0 3C 0F F8 00 1F FE 00 7F FF C3 FF 00 3C 00 00 C3 00 01 00 80 02 00 40 00 00 20 04 00 20 0C 00 10 00 00 18 0C 00 18 18 40 10 18 A0 10 08 E0 20 10 40 20 08 00 40 00 00 40 08 00 B0 18 00 58 0C 00 30 16 00 68 09 C3 90 06 3C 60 01 C3 80 00 3C 00 00 00 00 FF C3 FF FF 00 FF FE 00 7F FC 00 3F F8 00 1F F4 00 0F EC 00 07 F0 00 03 EC 00 03 D8 00 07 D8 80 0F E8 C0 1F D0 00 1F E8 00 3F F0 00 0F E8 00 37 D8 00 1B EC 00 37 C6 00 63 E1 C3 87 F0 3C 0F F8 00 1F FE 00 7F FF C3 FF 00 00 00 00 7E 30 01 81 48 02 03 B8 04 7F 98 34 FE 58 49 8D D0 75 74 50 65 C5 80 35 B4 40 1F C6 C0 0B BF 40 07 F7 80 03 EF 80 03 F0 40 0B FD D0 1B EE D8 0D CF B0 16 76 68 09 81 90 06 3C 60 01 C3 80 00 3C 00 00 00 00 FF FF CF FF 80 B7 FE 01 4B FC 03 BB C8 7F 9B B0 FE 5B 49 8D D7 75 74 57 65 C4 0F B5 84 5F DF C6 DF EB BF 5F F7 F7 BF FB EF BF F3 F0 4F EB FD D7 DB EE DB ED CF B7 C6 76 63 E1 81 87 F0 3C 0F F8 00 1F FE 00 7F FF C3 FF 00 00 00 00 7E 00 01 81 B0 02 00 78 02 00 38 04 40 B8 18 61 B0 3C 3F 20 3C 08 20 3E 00 20 1E 00 20 0E 86 40 07 CF C0 03 FF C0 03 FF C0 0B FF D0 1B FE D8 0D F9 B0 16 7E 68 09 81 90 06 3C 60 01 C3 80 00 3C 00 00 00 00 FF FF FF FF 81 CF FE 00 37 FC 00 3B FC 00 1B E0 00 1B D8 00 17 BC 00 0F BC 00 1F BE 00 1F DE 00 1F EE 86 5F F7 CF DF FB FF DF F3 FF CF EB FF D7 DB FE DB ED F9 B7 C6 7E 63 E1 81 87 F0 3C 0F F8 00 1F FE 00 7F FF C3 FF 00 00 00 00 0E 60 00 7F B0 01 FC C8 03 CB 58 1B B2 68 3D A4 70 63 C7 B0 5B EF D0 3F FF EC 1B FB DA 0B F3 F2 01 F0 FC 00 E6 38 01 39 80 0B CF 50 1B F0 D8 0D FF B0 16 3C 68 09 C3 90 06 3C 60 01 C3 80 00 3C 00 00 00 00 FF F1 9F FF 80 0F FE 00 07 FC 00 0B E0 03 1B C0 32 0B 80 20 07 00 00 07 18 00 03 BC 00 01 D8 00 00 E8 00 00 F4 00 01 FC 06 03 F0 00 07 E8 00 17 D8 00 1B EC 00 37 C6 00 63 E1 C3 87 F0 3C 0F F8 00 1F FE 00 7F FF C3 FF 00 00 00 18 06 70 3C 3F B0 3E FB D8 3D FF E8 1D FF E8 1A FF F0 07 FF F0 07 FF F0 0F FF F0 0F BF E0 06 7F E0 01 FF 40 01 FE 80 01 BE 40 0C 7D D0 1B BF D8 0D FF B0 16 3C 68 09 C3 90 06 3C 60 01 C3 80 00 3C 00 00 00 00 E7 F9 8F C3 C0 07 81 00 07 80 00 03 80 00 03 C0 00 03 C0 00 07 E0 00 07 F0 00 07 E0 00 07 E0 00 0F F0 00 0F F8 00 1F FC 00 1F F0 00 0F EC 00 17 D8 00 1B CC 00 33 C6 00 63 E1 C3 87 F0 3C 0F F8 00 1F FE 00 7F FF C3 FF 00 00 00 00 3C 00 00 E7 00 03 81 C0 0E 3C 70 38 E7 1C 63 81 C6 38 E7 1C 4E 3C 72 73 81 CE 5C E7 3A 47 3C E2 36 C3 6C 4E 24 70 73 A5 CC 7C E7 1E 0F 24 E2 00 01 FE 00 70 1E 00 60 00 00 20 00 00 60 00 00 60 00 00 00 00 FF C3 FF FF 3C FF FC E7 3F F3 81 CF CE 00 73 B8 00 1D 60 00 06 B8 00 1D 0E 00 70 03 81 C0 00 E7 00 00 3C 00 80 00 01 40 00 03 70 00 0D 7C 00 1E 8F 00 E2 F0 01 FE FF 76 1E FF 6F E1 FF AF FF FF 6F FF FF 6F FF FF 9F FF 00 00 00 00 3C 00 00 E7 00 03 81 C0 0E 3C 70 38 E7 1C 63 81 C6 38 E7 1C 4E 3C 72 73 81 CE 5C E7 3A 47 3C E2 36 C3 6C 0E 24 70 13 A5 C0 0C E7 00 00 25 E0 01 C2 70 03 B7 98 07 61 E0 06 C0 78 01 80 18 07 00 00 00 00 00 FF C3 FF FF 3C FF FC E7 3F F3 81 CF CE 00 73 B8 00 1D 60 00 06 B8 00 1D 0E 00 70 03 81 C0 00 E7 00 00 3C 00 80 00 01 C0 00 03 D0 00 0F EC 00 1F F2 01 EF FD C2 77 FB B7 9B F7 69 E7 F6 DE 7B F9 BF 9B F7 7F E7 F8 FF FF 00 00 00 00 00 00 00 7E 00 03 FF C0 0F FF F0 1F FF F8 3F FF FC 3F FF FC 5F FF FA 7F FF FE 37 FF EC 7E FF 7E 47 DB E2 21 FF 84 2C E7 34 57 6A EA 17 B5 E8 4B 42 D2 2A 99 54 15 3C A8 06 7E 60 01 81 80 00 7E 00 00 00 00 FF FF FF FF 81 FF FC 7E 3F F3 FF CF EF FF F7 DF FF FB BF FF FD BF FF FD 5F FF FA 7F FF FE B7 FF ED 7E FF 7E 47 DB E2 A1 FF 85 A0 E7 05 10 6A 08 90 34 09 48 42 12 A8 81 15 D5 00 AB E6 00 67 F9 81 9F FE 7E 7F FF 81 FF 00 00 00 00 7E 00 03 FF C0 0F FF F0 1F FF F8 3F FF FC 3F FF FC 3F FF FC 5F FF FA 4F FF F2 33 FF CC 54 7E 2A 8D 81 B1 81 BD 81 98 3C 11 AA 80 A9 51 55 52 5A AA A2 28 55 04 12 00 48 0C 54 30 03 81 C0 00 7E 00 00 00 00 FF 81 FF FC 7E 3F F3 FF CF EF FF F7 DF FF FB BF FF FD BF FF FD BF FF FD 5F FF FA 4F FF F2 B3 FF CD D4 7E 2B AD 81 B5 A1 BD 8D 98 3C 05 88 00 01 D0 00 03 D8 00 03 E8 00 07 F2 00 0F FC 00 3F FF 81 FF FF FF FF FF FF FF 00 00 00 00 7E 00 03 BD C0 0F 81 F0 14 7E 28 3B 7E DC 3B 00 DC 14 00 28 2F 81 F4 23 7E C4 2C 7E 34 0F 00 F0 2F 7E F4 33 7E CC 38 7E 1C 1B 00 D8 2B E7 D4 23 E7 C4 2C E7 34 0F 00 F0 0F 7E F0 03 7E C0 00 7E 00 00 00 00 FF 81 FF FC 7E 3F F3 BD CF EF 81 F7 D4 00 2B B8 00 1D B8 00 1D 94 00 29 8F 81 F1 83 7E C1 80 7E 01 C0 00 03 80 00 01 80 00 01 80 00 01 C0 00 03 80 00 01 80 00 01 80 00 01 C0 00 03 E0 00 07 F0 00 0F FC 00 3F FF 81 FF 00 7E 00 03 81 C0 0C 00 30 10 00 08 20 00 04 20 00 04 40 00 02 50 00 0A 40 00 02 40 00 02 22 00 44 21 81 84 10 7E 08 0C 00 30 03 81 C0 04 7E 20 1A 00 58 3A 00 5C 1D 81 B8 06 7E 60 01 81 80 00 7E 00 00 18 00 00 00 00 FF 81 FF FC 00 3F F0 00 0F E0 00 07 C0 00 03 C0 00 03 80 00 01 80 00 01 80 00 01 80 00 01 C0 00 03 C0 00 03 E0 00 07 F0 00 0F F8 00 1F E4 00 27 D8 00 1B B8 00 1D DC 00 3B E6 00 67 F9 81 9F FE 7E 7F FF 99 FF FF E7 FF 00 00 00 00 3C 00 00 C3 00 01 00 80 0F 00 F0 30 DB 0C 40 24 02 40 DB 02 71 00 8E 3E 00 7C 3D 00 BC 4D 81 B2 71 E7 8E 5C FF 3A 37 3C EC 4D C3 B2 73 7E CE 7C DB 3E 3D 3C BC 05 C3 A0 01 FF 80 00 FF 00 00 18 00 00 00 00 FF FF FF FF C3 FF FF 00 FF FE 00 7F F0 00 0F C0 18 03 00 24 00 00 18 00 00 00 00 80 00 01 80 00 01 40 00 02 70 00 0E 5C 00 3A B7 00 ED 0D C3 B0 03 7E C0 00 DB 00 80 3C 01 C0 00 03 F8 00 1F FE 00 7F FF 00 FF FF E7 FF 00 00 00 00 18 00 00 66 00 01 89 80 06 54 60 18 AA 98 35 55 4C 32 AA AC 39 55 1C 5E 2A 7A 67 91 E6 79 E7 9E 1E 7E 78 67 99 E6 79 E7 9E 1E 7E 78 27 99 E4 39 E7 9C 1E 7E 78 07 99 E0 01 E7 80 00 7E 00 00 18 00 00 00 00 FF E7 FF FF 81 FF FE 00 7F F8 08 1F E0 54 07 C0 AA 83 85 55 41 82 AA A1 81 55 01 40 2A 02 60 10 06 78 00 1E 9E 00 79 67 81 E6 79 E7 9E 9E 7E 79 87 99 E1 81 E7 81 C0 7E 03 E0 18 07 F8 00 1F FE 00 7F FF 81 FF FF E7 FF 00 00 00 00 7E 00 01 FF 80 07 FF E0 0F FF F0 1D FF F8 1B FF F8 33 FF FC 37 FF FC 77 FF FE 7F FF FE 77 FF FE 7F FF FE 7F FF FE 7F FF FE 3F FF FC 3F FF FC 1F FF F8 1F FF F8 0F FF F0 07 FF E0 01 FF 80 00 7E 00 00 00 00 FF 81 FF FE 00 7F F8 00 1F F0 00 0F E0 00 07 C0 00 03 C0 00 03 80 00 01 80 00 01 00 00 00 00 00 00 00 00 00 00 00 00 00 00 00 00 00 00 80 00 01 80 00 01 C0 00 03 C0 00 03 E0 00 07 F0 00 0F F8 00 1F FE 00 7F FF 81 FF 00 00 00 00 1F 00 00 7F C0 00 FF E0 01 FF 20 01 F9 F0 03 F7 F0 03 FF BC 03 FD A2 25 FD C1 1D FF C1 0B FF 81 17 9F 41 37 3F 02 67 BF 02 1B 9B CE 0D 6C 3C 0A F6 60 10 B7 80 00 60 00 00 00 00 00 00 00 00 00 00 00 00 00 FF E0 FF FF 9F 3F FF 7F DF FE FF EF FD FF 2F FD F9 F7 FB F7 F7 FB FF BF DB FD A3 81 FD C1 C1 FF C1 E3 FF 81 C7 9F 41 87 3F 03 07 BF 02 83 9B CC E1 0C 31 E0 06 63 C4 07 9F EF 08 7F FF 9F FF FF FF FF FF FF FF FF FF FF 00 00 00 00 00 03 C0 00 00 0E 70 00 00 38 1C 00 00 E7 C7 00 03 9F F7 80 0E 7F FC 00 38 FF FB 80 38 FF C1 00 4E 7F BB 80 73 9C 11 00 4C FB BB 80 53 01 10 00 4C BB B8 00 32 91 00 00 0C BB 80 00 03 90 00 00 00 B8 00 00 00 00 00 00 00 00 00 00 00 00 00 00 00 00 00 00 00 00 00 00 00 00 00 00 00 00 00 00 00 00 00 00 00 00 00 00 00 00 00 00 FF FC 3F FF FF F0 0F FF FF C0 03 FF FF 00 00 FF FC 00 00 3F F0 00 00 3F C0 00 00 3F 80 00 03 BF 00 00 01 3F 00 00 3B BF 00 00 11 3F 00 03 BB BF 10 01 10 7F 0C 3B BB FF 02 11 07 FF C0 3B BF FF F0 10 7F FF FC 3B FF FF FF 07 FF FF FF FF FF FF FF FF FF FF FF FF FF FF FF FF FF FF FF FF FF FF FF FF FF FF FF FF FF FF FF FF FF FF FF FF FF FF 00 00 00 00 00 07 80 00 00 1F C0 00 00 7F B8 00 01 FD FF 00 07 FF FF C0 1F DF FF F0 3F FF FF FC 4F 7F FF F2 73 FF FF CE 7C FF FF 3E 3B 3F FC FC 0B CF F3 F0 31 F3 CF CC 0E FC 3F 30 11 3F FC C8 2E 4F F3 34 47 92 CC E2 77 EC 33 EE 77 F3 CF EE 37 81 81 EC 0B 4C 32 D0 02 F3 CF 40 00 FC 3F 00 00 3F FC 00 00 0F F0 00 00 02 C0 00 00 00 00 00 FF F8 7F FF FF E7 BF FF FF 9F C7 FF FE 7F B8 FF F9 FD FF 3F E7 FF FF CF DF DF FF F3 BF FF FF FD 0F 7F FF F0 03 FF FF C0 00 FF FF 00 80 3F FC 01 C0 0F F0 03 B0 03 C0 0D CE 00 00 33 D1 00 00 CB A4 40 03 25 02 90 0C 40 05 4C 32 A0 02 A3 C5 40 85 01 80 A1 C2 0C 30 43 F0 03 C0 0F FC 00 00 3F FF 00 00 FF FF C0 03 FF FF F0 0F FF FF FD 3F FF 00 00 00 00 00 01 80 00 00 06 C0 00 00 19 E0 00 00 67 CC 00 01 9F 36 00 06 7C CF 00 19 F3 3E 70 3D CC F9 98 26 33 E6 7C 1A CF 99 FC 35 EE 67 FC 35 31 9F FA 32 D6 7F E2 35 AF 7F 8A 31 A9 BE 3A 35 96 B8 FA 31 AD A3 FA 35 8D 4F FA 31 AC BF F8 19 8D BF F8 01 AC BF F0 01 8D BF C0 00 CC BF 00 00 0D BC 00 00 0C B0 00 00 06 40 00 00 00 00 00 FF FE 7F FF FF F9 BF FF FF E6 DF FF FF 99 E3 FF FE 67 CD FF F9 9F 36 FF E6 7C CF 0F D9 F3 3E 77 BD CC F9 9B A6 33 E6 7D C2 CF 99 FD 85 EE 67 FD 85 31 9F F8 80 16 7F E0 80 2F 7F 80 80 29 BE 00 80 00 B8 00 80 01 A0 00 80 01 40 00 80 00 00 01 C0 00 00 03 E4 00 00 07 FC 00 00 0F FE 00 00 3F FF 20 00 FF FF E0 03 FF FF F0 0F FF FF F9 BF FF 00 00 00 00 00 00 00 00 00 03 C0 00 00 1C 38 00 00 62 46 00 01 9E 29 80 03 7E 54 C0 06 FC 2A 60 0C 01 80 30 15 54 3F A8 26 AA 7F 64 33 54 7E CC 5D 8A 79 BA 5E 60 46 7A 6F 9C 39 F6 6F E3 C7 F6 77 F8 1F EE 77 FD BF EE 78 01 80 1E 7A A9 95 5E 39 55 AA 9C 0E A9 95 70 03 55 AA C0 00 E9 97 00 00 35 AC 00 00 0D B0 00 00 03 C0 00 00 00 00 00 FF FF FF FF FF FC 3F FF FF E0 07 FF FF 80 01 FF FE 00 40 7F FC 00 28 3F F8 00 54 1F F0 00 2A 0F E0 01 80 07 C1 54 00 03 A0 AA 00 05 B0 54 00 0D 5C 0A 00 3A 5E 00 00 7A 6F 80 01 F6 6F E0 07 F6 77 F8 1F EE 77 FC 3F EE 78 00 00 1E 7A A8 15 5E B9 54 2A 9D CE A8 15 73 F3 54 2A CF FC E8 17 3F FF 34 2C FF FF CC 33 FF FF F0 0F FF FF FC 3F FF 00 00 00 00 00 03 C0 00 00 1C 38 00 00 61 C6 00 01 8A B9 80 03 2A AE C0 06 55 56 60 0B 2A AE D0 12 8A B9 D8 36 E1 47 6C 2C DC 3D 74 1D 97 E5 B8 5B 76 B6 DA 67 64 B3 66 32 ED 9B 8C 5C D9 DD 3A 27 1B 68 E4 69 E3 C7 96 5C 3C 3C 32 5B 47 E2 DA 33 68 16 CC 0E 6D 76 70 02 CD BB 40 00 D9 BB 00 00 33 9C 00 00 0E D0 00 00 02 C0 00 00 00 00 00 FF FC 3F FF FF E3 C7 FF
[...]
A350 :	FF 9C 39 FF FE 60 06 7F FD 80 01 BF FB 00 00 DF
A360 :  F6 00 00 6F EB 00 00 D7 D2 80 01 DB B6 E0 07 6D
A370 :	AC DC 3D 75 9D 97 E5 B9 1B 76 B6 D8 07 64 B3 60
A380 :  82 ED 9B 81 40 D9 DD 02 A0 1B 68 05 68 03 C0 16
A390 :  5C 00 00 32 5B 40 02 DA B3 68 16 CD CE 6D 76 73
A3A0 :  F2 CD BB 4F FC D9 BB 3F FF 33 9C FF FF CE D3 FF
A3B0 :  FF F2 CF FF FF FD 3F FF 00 00 00 00 00 03 C0 00


0100 : C3 03 01				JP 0103
0103 : 31 00 01				LD SP, #0100
0106 : CD E7 22				CALL #22E7
0107 : CA 54 0B				CALL #0B54
010C : 18 0E				JR #011C

# HEADOVER.III  Start addr: 0x4000, length 0x09F0 (should be 0A00), Enter Point 0x0000 Copied at A3C0-ADAF (should be ADBF)

	     0  1  2  3  4  5  6  7  8  9  A  B  C  D  E  F
A3C0 :  00 0E 70 00 00 39 9C 00 00 E6 67 00 03 99 99 C0
A3D0 :  0E 67 E6 70 39 8C 31 9C 39 60 06 9C 0E 58 1A 70
A3E0 :  33 96 69 CC 1C E5 A7 38 23 39 9C C4 41 CE 73 82
A3F0 :  7A 33 CC 5E 34 1C 38 2C 47 A3 C5 E2 7B 41 82 DE
A400 :  34 7A 5E 2C 47 B4 2D E2 33 47 E2 CC 0C 7B DE 30 03 34 2C C0 00 C7 E3 00 00 33 CC 00 00 0C 30 00 00 03 C0 00 00 00 00 00 FF FC 3F FF FF F3 CF FF FF CE 73 FF FF 38 1C FF FC E0 07 3F F3 80 01 CF CE 00 00 73 B8 00 00 1D B8 00 00 1D CE 00 00 73 83 80 01 C1 C0 E0 07 03 80 38 1C 01 00 0E 70 00 00 03 C0 00 80 00 00 01 40 00 00 02 78 00 00 1E B4 00 00 2D 07 80 01 E0 83 40 02 C1 C0 78 1E 03 F0 34 2C 0F FC 07 E0 3F FF 03 C0 FF FF C0 03 FF FF F0 0F FF FF FC 3F FF 00 00 00 00 00 03 C0 00 00 0C 30 00 00 33 CC 00 00 CC 33 00 03 33 CC C0 0C CC 33 30 33 33 CC CC 33 33 CC CC 1C CC 33 38 07 33 CC E0 03 CC 33 80 03 F3 CE 40 0B FC 39 B0 37 F7 E7 CC 5F F0 01 9A 67 F0 00 66 59 F8 01 9A 56 78 06 6A 55 9E 19 AA 35 67 E6 AC 0D 59 9A B0 03 56 6A C0 00 D5 AB 00 00 35 AC 00 00 0D B0 00 00 03 C0 00 00 00 00 00 FF FC 3F FF FF F3 CF FF FF CC 33 FF FF 30 0C FF FC C0 03 3F F3 03 C0 CF CC 0C 30 33 B0 30 0C 0D B0 30 0C 0D DC 0C 30 3B E7 03 C0 E7 FB C0 03 9F F3 F0 0E 4F CB FC 39 B3 B7 F7 E7 CD 1F F0 19 98 07 F7 FE 60 01 FB F9 80 00 79 E6 00 00 1E 18 00 80 07 E0 01 C0 01 80 03 F0 00 00 0F FC 00 00 3F FF 00 00 FF FF C0 03 FF FF F0 0F FF FF FC 3F FF 00 00 00 00 00 00 00 00 00 08 10 00 00 08 10 00 00 8C 31 00 00 9C 39 00 08 DD BB 10 09 DE 7B 90 09 DE 7B 90 15 EE 77 A8 15 AE 75 A8 0D 4E 72 B0 2E 48 12 74 6E C4 23 76 32 E4 27 4C 0C EC 37 30 13 2E 74 C8 1C CE 73 38 5D 32 4C BA 6D CC 33 B6 31 D3 CB 8C 0E DC 3B 70 03 1E 78 C0 00 EC 37 00 00 32 4C 00 00 0F F0 00 00 03 C0 00 00 00 00 00 FF FF FF FF FF F7 EF FF FF EB D7 FF FF 6B D6 FF FE AD B5 7F F6 9C 39 6F EA DC 3B 57 E9 DE 7B 97 E9 DE 7B 97 D5 EE 77 AB D5 AE 75 AB CD 4E 72 B3 8E 48 12 71 0E C4 23 70 82 E4 27 41 C0 EC 37 03 D0 2E 74 0B 9C 0E 70 39 1D 02 40 B8 0D C0 03 B0 81 D0 0B 81 C0 DC 3B 03 F0 1E 78 0F FC 0C 30 3F FF 00 00 FF FF C0 03 FF FF F0 0F FF FF FC 3F FF 00 00 00 00 00 01 C0 00 00 07 F0 00 00 0F F8 00 00 1F F7 00 00 7C 3F C0 01 F0 0F E0 1C 20 07 F4 3F C0 07 F6 63 F8 0F 78 6F FE 3E F8 1E 7F 7E F8 1B 7F 1E FC 35 E7 EF 7C 31 F7 F7 3E 3B DE 7A 4E 3F AF 79 F6 51 8F B3 FE 52 DF 8B FE 58 FF BD FC 2B F6 5D F8 03 F1 FD 70 00 E7 FD 40 00 0F F8 00 00 0B F0 00 00 0A E0 00 00 02 80 00 00 00 00 00 FF FE 3F FF FF F8 0F FF FF F0 07 FF FF E0 00 FF FF 80 00 3F FE 00 00 0F E0 00 00 03 C0 00 00 05 80 00 00 06 00 00 00 01 00 00 00 03 80 00 00 03 C0 00 00 01 84 00 00 01 80 00 00 00 80 00 00 40 80 20 01 F0 40 00 03 F8 42 00 03 FC 40 00 01 FD A0 00 41 FB D0 01 F1 77 FC 07 F1 4F FF 0F FA BF FF EB F7 FF FF EA EF FF FF F2 9F FF FF FD 7F FF 00 00 00 00 00 03 C0 00 00 0E 70 00 00 39 9C 00 00 E6 67 00 03 99 99 C0 0E 67 E6 70 1D 9F F9 BC 1E 67 E6 7E 27 99 99 F8 39 E6 67 E0 76 79 9F 86 75 9E 7E 18 6D E7 F8 66 6B D9 E1 98 6B D6 86 66 6B B7 19 98 6B AE 66 66 2B AC 99 98 2B AC 66 66 0B AD 99 9C 05 AC 66 70 01 AD 99 C0 00 AC 67 00 00 16 9C 00 00 07 70 00 00 01 C0 00 00 00 00 00 FF FC 3F FF FF F0 0F FF FF C0 03 FF FF 01 80 FF FC 06 60 3F F0 18 18 0F E0 60 06 03 C1 80 01 81 C0 60 06 00 80 18 18 01 80 06 60 01 06 01 80 06 04 00 00 19 0C 00 00 66 08 18 01 99 08 10 06 66 08 30 19 99 08 20 66 66 88 20 99 99 88 20 66 60 C8 21 99 81 F4 20 66 03 F8 21 98 0F FE 20 60 3F FF 10 80 FF FF E0 03 FF FF F8 0F FF FF FE 3F FF 00 00 00 00 00 03 80 00 00 0F E0 00 00 3C 78 00 00 F9 9E 00 03 FC 67 80 0F 1F 19 E0 1E 67 C6 78 3F 19 F1 BC 1F C6 7C 7C 67 F1 9F FE 79 FC 6F CE 7E 7F 1F B6 7F 9F FF 96 5F E7 F3 B6 77 F9 6D 96 5D FE 65 96 57 7F 6D 86 65 DF 65 9A 39 77 65 B2 1E 5D 61 CC 07 97 66 F0 01 E5 6C C0 00 79 73 00 00 1E BC 00 00 07 B0 00 00 01 C0 00 00 00 00 00 FF FC 7F FF FF F0 1F FF FF C0 07 FF FF 00 01 FF FC 01 80 7F F0 00 60 1F E0 00 18 07 C0 60 06 03 80 18 01 81 80 06 00 01 60 01 80 00 78 00 60 00 7E 00 00 00 7F 80 00 00 5F E0 00 00 77 F8 00 00 5D FE 00 00 57 7F 00 00 65 DF 00 18 B9 77 00 30 DE 5D 00 01 E7 97 06 03 F9 E5 0C 0F FE 79 00 3F FF 9E 80 FF FF E7 83 FF FF F9 CF FF FF FE 3F FF 00 00 00 00 00 02 C0 00 00 0D 30 00 00 33 CC 00 00 CF F3 00 03 3F FC C0 0C FF FF 30 33 FF FF CC 4F FF FF F2 33 FF FF CC 6C FF FF 36 2B 3F FC D4 4B 4F F3 52 72 B3 CF CE 1C F4 2D 38 67 2D 74 E2 31 CB 53 94 6A 72 CE 56 4D 9C 39 5A 5B 47 E6 AA 33 68 12 CC 0E 6A B6 70 02 DD B3 40 00 D5 9B 00 00 39 CC 00 00 0B 70 00 00 03 40 00 00 00 00 00 FF FD 3F FF FF F0 0F FF FF C0 03 FF FF 01 40 FF FC 0A A0 3F F0 15 54 0F C0 AA AA 03 81 55 55 41 0A AA AA A0 81 55 55 41 00 AA AA 00 80 15 54 01 40 0A A0 02 70 01 40 0E 9C 00 00 39 07 00 00 E0 81 C0 03 81 00 70 0E 00 00 1C 38 00 00 07 E0 00 80 00 00 01 C0 00 00 03 F0 00 00 0F FC 00 00 3F FF 00 00 FF FF C0 03 FF FF F0 0F FF FF FC 3F FF 30 00 C4 00 2D 00 0B 40 02 D0 00 B8 00 23 00 0C 00 0C 00 23 00 B4 02 D0 0B 40 1D 00 C4 00 30 00 30 00 C4 00 2D 00 0B 40 02 D0 00 B8 00 23 00 0C E0 03 78 0C 1E 10 07 80 01 E0 08 78 30 1E C0 07 C0 07 30 1E 08 78 01 E0 07 80 1E 10 78 0C E0 03 E0 03 78 0C 1E 10 07 80 01 E0 08 78 30 1E C0 07 07 FC 03 F3 01 CF F0 7F FE 0F F3 80 CF C0 3F E0 3F E0 CF C0 F3 80 FE 0F F0 7F 01 CF 03 F3 07 FC 07 FC 03 F3 01 CF F0 7F FE 0F F3 80 CF C0 3F E0 07 00 03 80 01 C0 F0 78 1E 0F 03 80 01 C0 00 E0 00 E0 01 C0 03 80 1E 0F F0 78 01 C0 03 80 07 00 07 00 03 80 01 C0 F0 78 1E 0F 03 80 01 C0 00 E0 E0 70 78 1C 1E 07 07 81 81 E0 E0 78 38 1E 0E 07 0E 07 38 1E E0 78 81 E0 07 81 1E 07 78 1C E0 70 E0 70 78 1C 1E 07 07 81 81 E0 E0 78 38 1E 0E 07 00 00 41 02 00 00 00 00 00 81 20 08 02 00 00 00 10 00 00 00 00 10 42 00 00 02 00 00 00 10 48 00 00 00 04 01 00 00 00 80 20 00 00 08 00 00 21 04 C4 00 3C 00 0E 00 03 10 00 F0 00 38 00 0C 00 03 00 23 00 3C 00 70 08 C0 0F 00 1C 00 30 00 C0 00 C4 00 3C 00 0E 00 03 10 00 F0 00 38 00 0C 00 03 00 00 00 00 00 00 00 00 00 00 00 00 00 00 00 00 00 00 00 00 00 00 00 00 00 00 00 00 00 00 00 00 00 00 00 00 00 00 00 00 00 00 00 00 00 00 00 00 00 00 00 00 00 00 00 00 88 CC EE 77 77 EE CC 88 88 CC EE 77 77 EE CC 88 4E 67 73 01 4E 67 73 01 72 E6 CE 80 72 E6 CE 80 C0 70 3C 18 3C 0E 03 00 06 03 3B 66 3D 42 3C 00 FE EE C6 6C 6C 38 10 00 00 00 00 00 38 38 18 30 00 00 7E 7E 7E 7E 00 00 00 00 00 00 00 38 38 38 3E 3E 7E 7E FC FC F8 F8 7C FE FE EE EE FE FE 7C 7C FC 7C 7C 7C FE FE FE FE FE BE 7C F8 FE FE FE FE FE 3E FE FE 3E FE FE E0 EC EC EC FE FE FE 0C FE FE F8 FE FE 1E FE FC FE FE F8 FE FE EE FE FE FE FE 1C 3C 78 78 F0 F0 FE FE EE 7C FE EE FE FE FE FE EE FE FE 1E FE FE 00 38 38 38 00 38 38 38 38 38 38 00 38 38 18 30 00 FE C6 BA AA BE C0 FC FE FE EE FE FE FE EE EE FE F6 FE FC FE F6 F6 FE FE FE FE F8 F8 FE FE FE FC FE FE EE EE FE FE FC FE FE F8 FC FC F8 FE FE FE FE F8 FC FC F8 F8 F8 FE FE FE F0 F6 FE FE FE EE EE FE FE FE FE EE EE FE FE 7C 7C 7C 7C FE FE 1E 1E 1E 1E DE DE FE FE E6 EE FE FC FC FE EE E6 F8 F8 F8 F8 F8 FE FE FE EE FE FE FE FE FE D6 C6 F6 F6 FE FE FE FE DE DE FE FE FE EE EE FE FE FE FE FE EE FE FE F8 F8 F8 FC FC FC EC EC FC FE FE FE FE EE FE FC FE FE EE FE FE F8 FE FE 3E FE FE FE FE FE 7C 7C 7C 7C 7C EE EE EE EE FE FE FE FE EE EE EE EE FE FE 7C 7C C6 D6 FE FE FE FE FE EE EE FE FE 7C 7C FE FE EE EE EE FE FE 7C 7C 7C 7C FE FE FE 3C 78 FE FE FE FE FE F8 F8 F8 F8 FE FE F8 F8 FC FC 7E 7E 3E 3E FE FE 3E 3E 3E 3E FE FE 10 38 7C FE 7C 7C 7C 7C 7C 7C 7C 7C FE 7C 38 10 00 10 F8 FC FE FC F8 10 00 10 3E 7E FE 7E 3E 10 00 00 00 03 00 00 00 03 00 00 00 3C 00 00 00 CF 00 01 00 F3 00 0E 00 7C 00 3F 00 9F 00 FF 00 3C 00 FC 03 F3 00 F3 0F CF 00 CF 3E 3E 00 3C F8 F8 03 F3 E4 E0 0F CF 9C 80 3E 3E 78 00 79 78 F8 00 67 60 F0 00 07 00 C0 08
[...]
AD70 :  00 78 00 3C 00 1F 00 F0 20 07 08 C0 38 00 38 00
AD80 :  5F 40 F4 04 4C 40 64 04 73 73 9C 9C 1E 1E F0 F0
AD90 :  23 03 88 80 3C 00 78 00 1F 00 F0 00 07 20 C0 08
ADA0 :  00 78 00 3C 00 7F 00 FC 00 3F 00 F8 00 0F 00 E0
Note: This version of HEADOVER.III is missing 16 "00" bytes at the end
(thus generating a glitch at the bottom of the pillars under certain doors)
ADB0 :  00 00 00 00 00 00 00 00 00 00 00 00 00 00 00 00

